
nothing.elf:     file format elf32-epiphany


Disassembly of section ivt_reset:

00000000 <_start>:
   0:	80e8 0000 	b 100 <_normal_start>

Disassembly of section workgroup_cfg:

00000028 <workgroup_cfg>:
	...

Disassembly of section ext_mem_cfg:

00000050 <ext_mem_cfg>:
	...

Disassembly of section loader_cfg:

00000058 <__loader_flags>:
	...

00000060 <__loader_args_ptr>:
	...

Disassembly of section .reserved_crt0:

00000100 <_normal_start>:
 100:	660b 0012 	mov r3,0x130
 104:	600b 1002 	movt r3,0x0
 108:	0d52      	jalr r3
	...

Disassembly of section NEW_LIB_RO:

8e000000 <exit>:
8e000000:	965c 0700 	str r4,[sp],-0x4
8e000004:	480b 0002 	mov r2,0x40
8e000008:	2003      	mov r1,0x0
8e00000a:	400b 18e2 	movt r2,0x8e00
8e00000e:	d6dc 2400 	str lr,[sp,+0x5]
8e000012:	f5dc 2400 	str fp,[sp,+0x3]
8e000016:	80e2      	mov r4,r0
8e000018:	0952      	jalr r2
8e00001a:	078b 0002 	mov r0,0x3c
8e00001e:	000b 18e2 	movt r0,0x8e00
8e000022:	0044      	ldr r0,[r0]
8e000024:	23cc 0001 	ldr r1,[r0,+0xf]
8e000028:	4433      	sub r2,r1,0
8e00002a:	0200      	beq 8e00002e <exit+0x2e>
8e00002c:	0552      	jalr r1
8e00002e:	3b0b 0052 	mov r1,0x5d8
8e000032:	10e2      	mov r0,r4
8e000034:	200b 18e2 	movt r1,0x8e00
8e000038:	0552      	jalr r1
8e00003a:	01a2      	nop

8e00003c <_global_impure_ptr>:
8e00003c:	0190      	blte 8e00003e <_global_impure_ptr+0x2>
8e00003e:	8e00      	beq 8dffff5a <_PROG_SIZE_FOR_CORE_+0x8defff5a>

8e000040 <__call_exitprocs>:
8e000040:	478b 0002 	mov r2,0x3c
8e000044:	400b 18e2 	movt r2,0x8e00
8e000048:	4844      	ldr r2,[r2]
8e00004a:	977c 0700 	strd r4,[sp],-0x6
8e00004e:	d6fc 0400 	strd r6,[sp,+0x5]
8e000052:	167c 2400 	strd r8,[sp,+0x4]
8e000056:	d57c 2400 	strd lr,[sp,+0x2]
8e00005a:	555c 0400 	str r2,[sp,+0x2]
8e00005e:	e0ef 2002 	mov fp,r0
8e000062:	481b 0029 	add r2,r2,328
8e000066:	24ef 2002 	mov r9,r1
8e00006a:	c023      	mov r6,0x1
8e00006c:	e003      	mov r7,0x0
8e00006e:	55fc 2400 	strd r10,[sp,+0x3]
8e000072:	55dc 0400 	str r2,[sp,+0x3]
8e000076:	554c 0400 	ldr r2,[sp,+0x2]
8e00007a:	094c 200a 	ldr r8,[r2,+0x52]
8e00007e:	003b 0400 	sub r0,r8,0
8e000082:	5e00      	beq 8e00013e <__call_exitprocs+0xfe>
8e000084:	55cc 2400 	ldr r10,[sp,+0x3]
8e000088:	80cc 0400 	ldr r4,[r8,+0x1]
8e00008c:	b056      	lsl r5,r4,0x2
8e00008e:	a29f 040a 	add r5,r8,r5
8e000092:	9393      	add r4,r4,-1
8e000094:	3033      	sub r1,r4,0
8e000096:	0b70      	bgte 8e0000ac <__call_exitprocs+0x6c>
8e000098:	37e0      	b 8e000106 <__call_exitprocs+0xc6>
8e00009a:	14cc 0008 	ldr r0,[r5,+0x41]
8e00009e:	243f 040a 	sub r1,r9,r0
8e0000a2:	0800      	beq 8e0000b2 <__call_exitprocs+0x72>
8e0000a4:	9393      	add r4,r4,-1
8e0000a6:	b613      	add r5,r5,-4
8e0000a8:	53b3      	sub r2,r4,-1
8e0000aa:	2e00      	beq 8e000106 <__call_exitprocs+0xc6>
8e0000ac:	043b 0400 	sub r0,r9,0
8e0000b0:	f510      	bne 8e00009a <__call_exitprocs+0x5a>
8e0000b2:	00cc 0400 	ldr r0,[r8,+0x1]
8e0000b6:	94cc 2000 	ldr r12,[r5,+0x1]
8e0000ba:	0393      	add r0,r0,-1
8e0000bc:	223a      	sub r1,r0,r4
8e0000be:	5100      	beq 8e000160 <__call_exitprocs+0x120>
8e0000c0:	f4d4      	str r7,[r5,0x1]
8e0000c2:	103b 0400 	sub r0,r12,0
8e0000c6:	ef00      	beq 8e0000a4 <__call_exitprocs+0x64>
8e0000c8:	014c 040c 	ldr r0,[r8,+0x62]
8e0000cc:	3a2a      	lsl r1,r6,r4
8e0000ce:	045a      	and r0,r1,r0
8e0000d0:	60cc 2400 	ldr r11,[r8,+0x1]
8e0000d4:	4300      	beq 8e00015a <__call_exitprocs+0x11a>
8e0000d6:	01cc 040c 	ldr r0,[r8,+0x63]
8e0000da:	245a      	and r1,r1,r0
8e0000dc:	4510      	bne 8e000166 <__call_exitprocs+0x126>
8e0000de:	34cc 0004 	ldr r1,[r5,+0x21]
8e0000e2:	1cef 0402 	mov r0,fp
8e0000e6:	115f 0402 	jalr r12
8e0000ea:	00cc 0400 	ldr r0,[r8,+0x1]
8e0000ee:	21bf 008a 	sub r1,r0,r11
8e0000f2:	c210      	bne 8e000076 <__call_exitprocs+0x36>
8e0000f4:	084c 0400 	ldr r0,[r10,+0x0]
8e0000f8:	403f 008a 	sub r2,r0,r8
8e0000fc:	bd10      	bne 8e000076 <__call_exitprocs+0x36>
8e0000fe:	9393      	add r4,r4,-1
8e000100:	b613      	add r5,r5,-4
8e000102:	53b3      	sub r2,r4,-1
8e000104:	d410      	bne 8e0000ac <__call_exitprocs+0x6c>
8e000106:	400b 0002 	mov r2,0x0
8e00010a:	400b 1002 	movt r2,0x0
8e00010e:	4833      	sub r2,r2,0
8e000110:	1700      	beq 8e00013e <__call_exitprocs+0xfe>
8e000112:	00cc 0400 	ldr r0,[r8,+0x1]
8e000116:	2033      	sub r1,r0,0
8e000118:	2c10      	bne 8e000170 <__call_exitprocs+0x130>
8e00011a:	204c 0400 	ldr r1,[r8,+0x0]
8e00011e:	4433      	sub r2,r1,0
8e000120:	2f00      	beq 8e00017e <__call_exitprocs+0x13e>
8e000122:	285c 0400 	str r1,[r10]
8e000126:	200b 0002 	mov r1,0x0
8e00012a:	00ef 0402 	mov r0,r8
8e00012e:	200b 1002 	movt r1,0x0
8e000132:	0552      	jalr r1
8e000134:	084c 2400 	ldr r8,[r10,+0x0]
8e000138:	403b 0400 	sub r2,r8,0
8e00013c:	a610      	bne 8e000088 <__call_exitprocs+0x48>
8e00013e:	d6ec 0400 	ldrd r6,[sp,+0x5]
8e000142:	166c 2400 	ldrd r8,[sp,+0x4]
8e000146:	55ec 2400 	ldrd r10,[sp,+0x3]
8e00014a:	d56c 2400 	ldrd lr,[sp,+0x2]
8e00014e:	b41b 2406 	add sp,sp,48
8e000152:	946c 0400 	ldrd r4,[sp,+0x0]
8e000156:	194f 0402 	rts
8e00015a:	115f 0402 	jalr r12
8e00015e:	c6e0      	b 8e0000ea <__call_exitprocs+0xaa>
8e000160:	80dc 0400 	str r4,[r8,+0x1]
8e000164:	afe0      	b 8e0000c2 <__call_exitprocs+0x82>
8e000166:	14cc 0004 	ldr r0,[r5,+0x21]
8e00016a:	115f 0402 	jalr r12
8e00016e:	bee0      	b 8e0000ea <__call_exitprocs+0xaa>
8e000170:	004c 0400 	ldr r0,[r8,+0x0]
8e000174:	40ef 2402 	mov r10,r8
8e000178:	00ef 2002 	mov r8,r0
8e00017c:	dee0      	b 8e000138 <__call_exitprocs+0xf8>
8e00017e:	0003      	mov r0,0x0
8e000180:	fae0      	b 8e000174 <__call_exitprocs+0x134>
8e000182:	01a2 	nop

Disassembly of section NEW_LIB_WR:

8e000184 <_impure_ptr-0x4>:
8e000184:	0000      	beq 8e000184 <__call_exitprocs+0x144>
	...

8e000188 <_impure_ptr>:
8e000188:	0190      	blte 8e00018a <_impure_ptr+0x2>
8e00018a:	8e00      	beq 8e0000a6 <__call_exitprocs+0x66>
8e00018c:	0000      	beq 8e00018c <_impure_ptr+0x4>
	...

8e000190 <impure_data>:
8e000190:	0000      	beq 8e000190 <impure_data>
8e000192:	0000      	beq 8e000192 <impure_data+0x2>
8e000194:	0488 8e00 	blt 8d1c019c <_PROG_SIZE_FOR_CORE_+0x8d0c019c>
8e000198:	04f8 8e00 	bl 8d1c01a0 <_PROG_SIZE_FOR_CORE_+0x8d0c01a0>
8e00019c:	0568 8e00 	bgt 8d1c01a6 <_PROG_SIZE_FOR_CORE_+0x8d0c01a6>
	...
8e0001c4:	03e0      	b 8e0001ca <impure_data+0x3a>
	...
8e00023e:	0000      	beq 8e00023e <impure_data+0xae>
8e000240:	0001      	ldrb r0,[r0,r0]
8e000242:	0000      	beq 8e000242 <impure_data+0xb2>
8e000244:	0000      	beq 8e000244 <impure_data+0xb4>
8e000246:	0000      	beq 8e000246 <impure_data+0xb6>
8e000248:	330e      	asr r1,r4,0x18
8e00024a:	abcd 1234 	*unknown*
8e00024e:	e66d deec 	*unknown*
8e000252:	0005      	ldrb r0,[r0],r0
8e000254:	000b 0000 	*unknown*
	...

Disassembly of section GNU_C_BUILTIN_LIB_RO:

8e0005d8 <_exit>:
8e0005d8:	0fe2      	trap 0x3
8e0005da:	01b2      	idle
8e0005dc:	ffe0 	b 8e0005da <_exit+0x2>

Disassembly of section .init:

0000010c <_init>:
 10c:	d65c 2700 	str lr,[sp],-0x4
 110:	038b 0032 	mov r0,0x31c
 114:	000b 1002 	movt r0,0x0
 118:	0152      	jalr r0
 11a:	0d0b 0032 	mov r0,0x368
 11e:	000b 1002 	movt r0,0x0
 122:	0152      	jalr r0
 124:	d64c 2400 	ldr lr,[sp,+0x4]
 128:	b41b 2402 	add sp,sp,16
 12c:	194f 0402 	rts

Disassembly of section .text:

00000130 <_epiphany_start>:
 130:	be0b 27f2 	mov sp,0x7ff0
 134:	a00b 3002 	movt sp,0x0
 138:	e00b 2002 	mov fp,0x0
 13c:	0b0b 0002 	mov r0,0x58
 140:	000b 1002 	movt r0,0x0
 144:	0044      	ldr r0,[r0]
 146:	202b 0002 	mov r1,0x1
 14a:	200b 1002 	movt r1,0x0
 14e:	00da      	and r0,r0,r1
 150:	1110      	bne 172 <bss_done>
 152:	1d0b 0032 	mov r0,0x3e8
 156:	000b 1002 	movt r0,0x0
 15a:	3e0b 0032 	mov r1,0x3f0
 15e:	200b 1002 	movt r1,0x0
 162:	4003      	mov r2,0x0
 164:	6003      	mov r3,0x0
 166:	843a      	sub r4,r1,r0
 168:	0590      	blte 172 <bss_done>

0000016a <bss_loop>:
 16a:	40fc 0200 	strd r2,[r0],+0x1
 16e:	843a      	sub r4,r1,r0
 170:	fd60      	bgt 16a <bss_loop>

00000172 <bss_done>:
 172:	510b 0012 	mov r2,0x188
 176:	400b 18e2 	movt r2,0x8e00
 17a:	4844      	ldr r2,[r2]
 17c:	358b 0032 	mov r1,0x3ac
 180:	200b 1002 	movt r1,0x0
 184:	681b 002a 	add r3,r2,336
 188:	081b 0029 	add r0,r2,328
 18c:	6054      	str r3,[r0]
 18e:	0023      	mov r0,0x1
 190:	4ce2      	mov r2,r3
 192:	6a1b 0000 	add r3,r2,4
 196:	0c54      	str r0,[r3]
 198:	681b 0001 	add r3,r2,8
 19c:	2c54      	str r1,[r3]
 19e:	1fcb 0ff2 	mov r0,0xfffe
 1a2:	050f 0402 	movts imask,r0
 1a6:	168b 0012 	mov r0,0x1b4
 1aa:	000b 1002 	movt r0,0x0
 1ae:	010f 0402 	movts iret,r0
 1b2:	01d2      	rti

000001b4 <RDS>:
 1b4:	418b 0012 	mov r2,0x10c
 1b8:	400b 1002 	movt r2,0x0
 1bc:	0952      	jalr r2
 1be:	0b0b 0002 	mov r0,0x58
 1c2:	000b 1002 	movt r0,0x0
 1c6:	0044      	ldr r0,[r0]
 1c8:	204b 0002 	mov r1,0x2
 1cc:	200b 1002 	movt r1,0x0
 1d0:	00da      	and r0,r0,r1
 1d2:	2b00      	beq 228 <std_call>

000001d4 <custom_call>:
 1d4:	0c0b 2002 	mov r8,0x60
 1d8:	000b 3002 	movt r8,0x0
 1dc:	004c 2400 	ldr r8,[r8,+0x0]
 1e0:	00cc 0600 	ldr r0,[r8],+0x1
 1e4:	20cc 0600 	ldr r1,[r8],+0x1
 1e8:	40cc 0600 	ldr r2,[r8],+0x1
 1ec:	60cc 0600 	ldr r3,[r8],+0x1
 1f0:	80cc 0600 	ldr r4,[r8],+0x1
 1f4:	021b 2400 	add r8,r8,4
 1f8:	a0cc 0600 	ldr r5,[r8],+0x1
 1fc:	021b 2400 	add r8,r8,4
 200:	c0cc 0600 	ldr r6,[r8],+0x1
 204:	021b 2400 	add r8,r8,4
 208:	b433      	sub r5,r5,0
 20a:	1700      	beq 238 <go>
 20c:	b6bf 240a 	sub sp,sp,r5
 210:	f4ef 0402 	mov r7,sp
 214:	b43b 2401 	sub sp,sp,8

00000218 <stack_args_loop>:
 218:	18ec 2200 	ldrd r8,[r6],+0x1
 21c:	b43b 0001 	sub r5,r5,8
 220:	1cfc 2200 	strd r8,[r7],+0x1
 224:	fa60      	bgt 218 <stack_args_loop>
 226:	09e0      	b 238 <go>

00000228 <std_call>:
 228:	0003      	mov r0,0x0
 22a:	2003      	mov r1,0x0
 22c:	4003      	mov r2,0x0
 22e:	6003      	mov r3,0x0
 230:	8a0b 0032 	mov r4,0x350
 234:	800b 1002 	movt r4,0x0

00000238 <go>:
 238:	1152      	jalr r4
 23a:	800b 0002 	mov r4,0x0
 23e:	800b 18e2 	movt r4,0x8e00
 242:	1152      	jalr r4
 244:	01b2      	idle
 246:	01a2      	nop

00000248 <deregister_tm_clones>:
 248:	1c0b 0032 	mov r0,0x3e0
 24c:	3c6b 0032 	mov r1,0x3e3
 250:	000b 1002 	movt r0,0x0
 254:	200b 1002 	movt r1,0x0
 258:	243a      	sub r1,r1,r0
 25a:	473b 0000 	sub r2,r1,6
 25e:	0840      	blteu 26e <deregister_tm_clones+0x26>
 260:	200b 0002 	mov r1,0x0
 264:	200b 1002 	movt r1,0x0
 268:	4433      	sub r2,r1,0
 26a:	0200      	beq 26e <deregister_tm_clones+0x26>
 26c:	0542      	jr r1
 26e:	194f 0402 	rts
 272:	01a2      	nop

00000274 <register_tm_clones>:
 274:	1c0b 0032 	mov r0,0x3e0
 278:	3c0b 0032 	mov r1,0x3e0
 27c:	000b 1002 	movt r0,0x0
 280:	200b 1002 	movt r1,0x0
 284:	243a      	sub r1,r1,r0
 286:	244e      	asr r1,r1,0x2
 288:	47e6      	lsr r2,r1,0x1f
 28a:	289a      	add r1,r2,r1
 28c:	242e      	asr r1,r1,0x1
 28e:	4433      	sub r2,r1,0
 290:	0800      	beq 2a0 <register_tm_clones+0x2c>
 292:	400b 0002 	mov r2,0x0
 296:	400b 1002 	movt r2,0x0
 29a:	6833      	sub r3,r2,0
 29c:	0200      	beq 2a0 <register_tm_clones+0x2c>
 29e:	0942      	jr r2
 2a0:	194f 0402 	rts

000002a4 <__do_global_dtors_aux>:
 2a4:	95fc 0700 	strd r4,[sp],-0x3
 2a8:	d57c 0400 	strd r6,[sp,+0x2]
 2ac:	fd0b 0032 	mov r7,0x3e8
 2b0:	e00b 1002 	movt r7,0x0
 2b4:	1c04      	ldrb r0,[r7]
 2b6:	d4fc 2400 	strd lr,[sp,+0x1]
 2ba:	2033      	sub r1,r0,0
 2bc:	2610      	bne 308 <__do_global_dtors_aux+0x64>
 2be:	ba0b 0032 	mov r5,0x3d0
 2c2:	1a8b 0032 	mov r0,0x3d4
 2c6:	000b 1002 	movt r0,0x0
 2ca:	9d8b 0032 	mov r4,0x3ec
 2ce:	a00b 1002 	movt r5,0x0
 2d2:	a2ba      	sub r5,r0,r5
 2d4:	800b 1002 	movt r4,0x0
 2d8:	b44e      	asr r5,r5,0x2
 2da:	1044      	ldr r0,[r4]
 2dc:	b793      	add r5,r5,-1
 2de:	da0b 0032 	mov r6,0x3d0
 2e2:	22ba      	sub r1,r0,r5
 2e4:	c00b 1002 	movt r6,0x0
 2e8:	0930      	bgteu 2fa <__do_global_dtors_aux+0x56>
 2ea:	0093      	add r0,r0,1
 2ec:	2056      	lsl r1,r0,0x2
 2ee:	38c1      	ldr r1,[r6,r1]
 2f0:	1054      	str r0,[r4]
 2f2:	0552      	jalr r1
 2f4:	1044      	ldr r0,[r4]
 2f6:	22ba      	sub r1,r0,r5
 2f8:	f950      	bltu 2ea <__do_global_dtors_aux+0x46>
 2fa:	090b 0022 	mov r0,0x248
 2fe:	000b 1002 	movt r0,0x0
 302:	0152      	jalr r0
 304:	0023      	mov r0,0x1
 306:	1c14      	strb r0,[r7]
 308:	d56c 0400 	ldrd r6,[sp,+0x2]
 30c:	d4ec 2400 	ldrd lr,[sp,+0x1]
 310:	b41b 2403 	add sp,sp,24
 314:	946c 0400 	ldrd r4,[sp,+0x0]
 318:	194f 0402 	rts

0000031c <frame_dummy>:
 31c:	1b0b 0032 	mov r0,0x3d8
 320:	000b 1002 	movt r0,0x0
 324:	2044      	ldr r1,[r0]
 326:	d4fc 2700 	strd lr,[sp],-0x1
 32a:	4433      	sub r2,r1,0
 32c:	0a10      	bne 340 <frame_dummy+0x24>
 32e:	b41b 2401 	add sp,sp,8
 332:	0e8b 0022 	mov r0,0x274
 336:	d46c 2400 	ldrd lr,[sp,+0x0]
 33a:	000b 1002 	movt r0,0x0
 33e:	0142      	jr r0
 340:	200b 0002 	mov r1,0x0
 344:	200b 1002 	movt r1,0x0
 348:	4433      	sub r2,r1,0
 34a:	f200      	beq 32e <frame_dummy+0x12>
 34c:	0552      	jalr r1
 34e:	f0e0      	b 32e <frame_dummy+0x12>

00000350 <main>:
 350:	f65c 2700 	str fp,[sp],-0x4
 354:	f4ef 2402 	mov fp,sp
 358:	0003      	mov r0,0x0
 35a:	f64c 2400 	ldr fp,[sp,+0x4]
 35e:	b41b 2402 	add sp,sp,16
 362:	194f 0402 	rts
 366:	01a2      	nop

00000368 <__do_global_ctors_aux>:
 368:	198b 0032 	mov r0,0x3cc
 36c:	000b 1002 	movt r0,0x0
 370:	00cc 0100 	ldr r0,[r0,-0x1]
 374:	965c 0700 	str r4,[sp],-0x4
 378:	d6dc 2400 	str lr,[sp,+0x5]
 37c:	990b 0032 	mov r4,0x3c8
 380:	f5dc 2400 	str fp,[sp,+0x3]
 384:	23b3      	sub r1,r0,-1
 386:	800b 1002 	movt r4,0x0
 38a:	0600      	beq 396 <__do_global_ctors_aux+0x2e>
 38c:	0152      	jalr r0
 38e:	9213      	add r4,r4,-4
 390:	1044      	ldr r0,[r4]
 392:	23b3      	sub r1,r0,-1
 394:	fc10      	bne 38c <__do_global_ctors_aux+0x24>
 396:	d6cc 2400 	ldr lr,[sp,+0x5]
 39a:	964c 0400 	ldr r4,[sp,+0x4]
 39e:	f5cc 2400 	ldr fp,[sp,+0x3]
 3a2:	b41b 2402 	add sp,sp,16
 3a6:	194f 0402 	rts
 3aa:	01a2 	nop

Disassembly of section .fini:

000003ac <_fini>:
 3ac:	d65c 2700 	str lr,[sp],-0x4
 3b0:	148b 0022 	mov r0,0x2a4
 3b4:	000b 1002 	movt r0,0x0
 3b8:	0152      	jalr r0
 3ba:	d64c 2400 	ldr lr,[sp,+0x4]
 3be:	b41b 2402 	add sp,sp,16
 3c2:	194f 0402 	rts

Disassembly of section .ctors:

000003c8 <__CTOR_LIST__>:
 3c8:	ffff ffff 	*unknown*

000003cc <__CTOR_END__>:
 3cc:	0000      	beq 3cc <__CTOR_END__>
	...

Disassembly of section .dtors:

000003d0 <__DTOR_LIST__>:
 3d0:	ffff ffff 	*unknown*

000003d4 <__DTOR_END__>:
 3d4:	0000      	beq 3d4 <__DTOR_END__>
	...

Disassembly of section .jcr:

000003d8 <__JCR_END__>:
 3d8:	0000      	beq 3d8 <__JCR_END__>
	...

Disassembly of section .data:

000003dc <__dso_handle>:
 3dc:	0000      	beq 3dc <__dso_handle>
	...

Disassembly of section .rodata:

000003e0 <.rodata>:
 3e0:	0043      	mov r0,0x2
 3e2:	0000      	beq 3e2 <__TMC_END__+0x2>
 3e4:	0000      	beq 3e4 <__TMC_END__+0x4>
	...

Disassembly of section .bss:

000003e8 <__bss_start>:
 3e8:	0000      	beq 3e8 <__bss_start>
	...

000003ec <dtor_idx.3109>:
 3ec:	0000      	beq 3ec <dtor_idx.3109>
	...

Disassembly of section .stab:

00000000 <.stab>:
   0:	0001      	ldrb r0,[r0,r0]
   2:	0000      	beq 2 <_CORE_NUM_+0x2>
   4:	0000      	beq 4 <_NUM_COLS_IN_CHIP_>
   6:	0006      	lsr r0,r0,0x0
   8:	00cc 0000 	ldr r0,[r0,+0x1]
   c:	0077      	fabs rd,rn
   e:	0000      	beq e <_CORE_COL_+0x6>
  10:	0080      	blt 10 <_CORE_COL_+0x8>
  12:	0001      	ldrb r0,[r0,r0]
  14:	0000      	beq 14 <_CORE_COL_+0xc>
  16:	0000      	beq 16 <_CORE_COL_+0xe>
  18:	00a1      	ldrh r0,[r0,r1]
  1a:	0000      	beq 1a <_CORE_COL_+0x12>
  1c:	0080      	blt 1c <_CORE_COL_+0x14>
  1e:	0001      	ldrb r0,[r0,r0]
  20:	0000      	beq 20 <_CORE_ROW_>
  22:	0000      	beq 22 <_CORE_ROW_+0x2>
  24:	0077      	fabs rd,rn
  26:	0000      	beq 26 <_CORE_ROW_+0x6>
  28:	0080      	blt 28 <_CORE_ROW_+0x8>
  2a:	0001      	ldrb r0,[r0,r0]
  2c:	0000      	beq 2c <_CORE_ROW_+0xc>
  2e:	0000      	beq 2e <_CORE_ROW_+0xe>
  30:	00a1      	ldrh r0,[r0,r1]
  32:	0000      	beq 32 <_CORE_ROW_+0x12>
  34:	0080      	blt 34 <_CORE_ROW_+0x14>
  36:	0001      	ldrb r0,[r0,r0]
  38:	0000      	beq 38 <_CORE_ROW_+0x18>
  3a:	0000      	beq 3a <_CORE_ROW_+0x1a>
  3c:	0077      	fabs rd,rn
  3e:	0000      	beq 3e <_CORE_ROW_+0x1e>
  40:	0080      	blt 40 <_CORE_ROW_+0x20>
  42:	0001      	ldrb r0,[r0,r0]
  44:	0000      	beq 44 <_CORE_ROW_+0x24>
  46:	0000      	beq 46 <_CORE_ROW_+0x26>
  48:	00a1      	ldrh r0,[r0,r1]
  4a:	0000      	beq 4a <_CORE_ROW_+0x2a>
  4c:	0080      	blt 4c <_CORE_ROW_+0x2c>
  4e:	0001      	ldrb r0,[r0,r0]
  50:	0000      	beq 50 <_CORE_ROW_+0x30>
	...

Disassembly of section .stabstr:

00000000 <.stabstr>:
   0:	2f00      	beq 5e <__loader_flags+0x6>
   2:	6f68 656d 	bgt cadae0 <_PROG_SIZE_FOR_CORE_+0xbadae0>
   6:	732f 696e 	*unknown*
   a:	326d 692f 	*unknown*
   e:	736e      	asr r3,r4,0x1b
  10:	2f74      	strd r1,[r3,0x6]
  12:	6461      	ldrd r3,[r1,r0]
  14:	7061      	ldrd r3,[r4,r0]
  16:	6574      	strd r3,[r1,0x2]
  18:	6176      	lsl r3,r0,0xb
  1a:	752f 696e 	*unknown*
  1e:	7273 2d63 	*unknown*
  22:	3032      	movgteu r1,r4
  24:	3631      	strh r1,[r5,r4]
  26:	332e      	asr r1,r4,0x19
  28:	312e      	asr r1,r4,0x9
  2a:	6c2f 6269 	*unknown*
  2e:	6c67      	fix r3,r3
  30:	736f 2f73 	*unknown*
  34:	7065      	ldrd r3,[r4],r0
  36:	7069 6168 	*unknown*
  3a:	796e      	asr r3,r6,0xb
  3c:	2e2f 2f2e 	*unknown*
  40:	2e2e      	asr r1,r3,0x11
  42:	6e2f 7765 	*unknown*
  46:	696c 2f62 	ldrd r11,[r26],-0x312
  4a:	696c 6362 	ldrd r27,[r2],-0x312
  4e:	6d2f 6361 	*unknown*
  52:	6968 656e 	bgt cadd24 <_PROG_SIZE_FOR_CORE_+0xbadd24>
  56:	652f 6970 	*unknown*
  5a:	6870      	bgte 12a <_init+0x1e>
  5c:	6e61      	ldrd r3,[r3,r4]
  5e:	2f79 616d 	*unknown*
  62:	6863      	mov r3,0x43
  64:	6e69 2f65 	*unknown*
  68:	7065      	ldrd r3,[r4],r0
  6a:	7069 6168 	*unknown*
  6e:	796e      	asr r3,r6,0xb
  70:	612d 6d73 	*unknown*
  74:	682e      	asr r3,r2,0x1
  76:	6900      	beq 148 <_epiphany_start+0x18>
  78:	746e      	asr r3,r5,0x3
  7a:	743a      	sub r3,r5,r0
  7c:	3028 312c 	bgtu 6258dc <_PROG_SIZE_FOR_CORE_+0x5258dc>
  80:	3d29 2872 	*unknown*
  84:	2c30      	bgteu dc <__loader_args_ptr+0x7c>
  86:	2931      	strh r1,[r2,r2]
  88:	2d3b 3132 	*unknown*
  8c:	3734      	strh r1,[r5,0x6]
  8e:	3834      	strh r1,[r6]
  90:	3633      	sub r1,r5,-4
  92:	3834      	strh r1,[r6]
  94:	323b 3431 	sub r9,r44,396
  98:	3437      	fmadd r1,r5,r0
  9a:	3338 3436 	bgteu 686d00 <_PROG_SIZE_FOR_CORE_+0x586d00>
  9e:	3b37      	fmadd r1,r6,r6
  a0:	7500      	beq 18a <bss_done+0x18>
  a2:	736e      	asr r3,r4,0x1b
  a4:	6769 656e 	*unknown*
  a8:	2064      	ldrd r1,[r0]
  aa:	6e69 3a74 	*unknown*
  ae:	2874      	strd r1,[r2]
  b0:	2c30      	bgteu 108 <_normal_start+0x8>
  b2:	2932 723d 	*unknown*
  b6:	3028 322c 	bgtu 645916 <_PROG_SIZE_FOR_CORE_+0x545916>
  ba:	3b29 3b30 	testseth r9,[r54,-r54]
  be:	3330      	bgteu 124 <_init+0x18>
  c0:	3737      	fmadd r1,r5,r6
  c2:	3737      	fmadd r1,r5,r6
  c4:	3737      	fmadd r1,r5,r6
  c6:	3737      	fmadd r1,r5,r6
  c8:	3737      	fmadd r1,r5,r6
  ca:	003b 	sub r0,r0,0
  cc:	021b 

Disassembly of section .comment:

00000000 <.comment>:
   0:	4347      	fmsub r2,r0,r6
   2:	3a43      	mov r1,0xd2
   4:	2820      	bgtu 54 <_CORE_ROW_+0x34>
   6:	7045      	ldr r3,[r4],r0
   8:	7069 6168 	*unknown*
   c:	796e      	asr r3,r6,0xb
   e:	7420      	bgtu f6 <__loader_args_ptr+0x96>
  10:	6f6f 636c 	*unknown*
  14:	6168 6e69 	bgt dcd2d6 <_PROG_SIZE_FOR_CORE_+0xccd2d6>
  18:	3220      	bgtu 7c <__loader_args_ptr+0x1c>
  1a:	3130      	bgteu 7c <__loader_args_ptr+0x1c>
  1c:	2e36      	lsl r1,r3,0x11
  1e:	2e33      	sub r1,r3,-4
  20:	2931      	strh r1,[r2,r2]
  22:	3520      	bgtu 8c <__loader_args_ptr+0x2c>
  24:	322e      	asr r1,r4,0x11
  26:	302e 	asr r1,r4,0x1
	...

Disassembly of section .debug_aranges:

00000000 <.debug_aranges>:
   0:	001c 0000 	strb r0,[r0]
   4:	0002      	moveq r0,r0
   6:	0000      	beq 6 <_NUM_COLS_IN_CHIP_+0x2>
   8:	0000      	beq 8 <_CORE_COL_>
   a:	0004      	ldrb r0,[r0]
   c:	0000      	beq c <_CORE_COL_+0x4>
   e:	0000      	beq e <_CORE_COL_+0x6>
  10:	0350      	bltu 16 <_CORE_COL_+0xe>
  12:	0000      	beq 12 <_CORE_COL_+0xa>
  14:	0016      	lsl r0,r0,0x0
	...
  1e:	0000      	beq 1e <_CORE_COL_+0x16>
  20:	001c 0000 	strb r0,[r0]
  24:	0002      	moveq r0,r0
  26:	0042      	movlteu r0,r0
  28:	0000      	beq 28 <_CORE_ROW_+0x8>
  2a:	0004      	ldrb r0,[r0]
  2c:	0000      	beq 2c <_CORE_ROW_+0xc>
  2e:	0000      	beq 2e <_CORE_ROW_+0xe>
  30:	0000      	beq 30 <_CORE_ROW_+0x10>
  32:	8e00      	beq ffffff4e <_exit+0x71fff976>
  34:	003a      	sub r0,r0,r0
	...
  3e:	0000      	beq 3e <_CORE_ROW_+0x1e>
  40:	0014      	strb r0,[r0]
  42:	0000      	beq 42 <_CORE_ROW_+0x22>
  44:	0002      	moveq r0,r0
  46:	08fe 0000 	*unknown*
  4a:	0004      	ldrb r0,[r0]
	...
  58:	001c 0000 	strb r0,[r0]
  5c:	0002      	moveq r0,r0
  5e:	1195      	strb r0,[r4],r3
  60:	0000      	beq 60 <__loader_args_ptr>
  62:	0004      	ldrb r0,[r0]
  64:	0000      	beq 64 <__loader_args_ptr+0x4>
  66:	0000      	beq 66 <__loader_args_ptr+0x6>
  68:	0040      	blteu 68 <__loader_args_ptr+0x8>
  6a:	8e00      	beq ffffff86 <_exit+0x71fff9ae>
  6c:	0142      	jr r0
	...

Disassembly of section .debug_info:

00000000 <.debug_info>:
       0:	003e 0000 	*unknown*
       4:	0004      	ldrb r0,[r0]
       6:	0000      	beq 6 <_NUM_COLS_IN_CHIP_+0x2>
       8:	0000      	beq 8 <_CORE_COL_>
       a:	0104      	ldrb r0,[r0,0x2]
       c:	005a      	and r0,r0,r0
       e:	0000      	beq e <_CORE_COL_+0x6>
      10:	4b0c 0000 	ldrb r2,[r2,+0x6]
      14:	0000      	beq 14 <_CORE_COL_+0xc>
      16:	0000      	beq 16 <_CORE_COL_+0xe>
      18:	5000      	beq b8 <__loader_args_ptr+0x58>
      1a:	0003      	mov r0,0x0
      1c:	1600      	beq 48 <_CORE_ROW_+0x28>
      1e:	0000      	beq 1e <_CORE_COL_+0x16>
      20:	0000      	beq 20 <_CORE_ROW_>
      22:	0000      	beq 22 <_CORE_ROW_+0x2>
      24:	0200      	beq 28 <_CORE_ROW_+0x8>
      26:	0055      	str r0,[r0],r0
      28:	0000      	beq 28 <_CORE_ROW_+0x8>
      2a:	0101      	ldrb r0,[r0,r2]
      2c:	003a      	sub r0,r0,r0
      2e:	0000      	beq 2e <_CORE_ROW_+0xe>
      30:	0350      	bltu 36 <_CORE_ROW_+0x16>
      32:	0000      	beq 32 <_CORE_ROW_+0x12>
      34:	0016      	lsl r0,r0,0x0
      36:	0000      	beq 36 <_CORE_ROW_+0x16>
      38:	9c01      	ldrb r4,[r7,r0]
      3a:	0403      	mov r0,0x20
      3c:	6905      	ldrb r3,[r2],r2
      3e:	746e      	asr r3,r5,0x3
      40:	0000      	beq 40 <_CORE_ROW_+0x20>
      42:	08b8 0000 	bbne 52 <_CORE_ROW_+0x32>
      46:	0004      	ldrb r0,[r0]
      48:	0037      	fmadd r0,r0,r0
      4a:	0000      	beq 4a <_CORE_ROW_+0x2a>
      4c:	0104      	ldrb r0,[r0,0x2]
      4e:	00a4      	ldrh r0,[r0,0x1]
      50:	0000      	beq 50 <_CORE_ROW_+0x30>
      52:	310c 0004 	ldrb r1,[r4,+0x22]
      56:	0000      	beq 56 <_CORE_ROW_+0x36>
      58:	0000      	beq 58 <__loader_flags>
      5a:	3a8e      	asr r1,r6,0x14
      5c:	0000      	beq 5c <__loader_flags+0x4>
      5e:	3900      	beq d0 <__loader_args_ptr+0x70>
      60:	0000      	beq 60 <__loader_args_ptr>
      62:	0200      	beq 66 <__loader_args_ptr+0x6>
      64:	0704      	ldrb r0,[r1,0x6]
      66:	011b 0000 	add r0,r0,2
      6a:	0402      	moveq r0,r1
      6c:	2007      	fadd r1,r0,r0
      6e:	0001      	ldrb r0,[r0,r0]
      70:	0200      	beq 74 <__loader_args_ptr+0x14>
      72:	0504      	ldrb r0,[r1,0x2]
      74:	0161      	ldrd r0,[r0,r2]
      76:	0000      	beq 76 <__loader_args_ptr+0x16>
      78:	0802      	moveq r0,r2
      7a:	5c05      	ldrb r2,[r7],r0
      7c:	0001      	ldrb r0,[r0,r0]
      7e:	0200      	beq 82 <__loader_args_ptr+0x22>
      80:	0408 03e6 	beq 7cc88 <__stack_start_+0x74c98>
      84:	0000      	beq 84 <__loader_args_ptr+0x24>
      86:	0102      	movts config,r0
      88:	1906      	lsr r0,r6,0x8
      8a:	0003      	mov r0,0x0
      8c:	0200      	beq 90 <__loader_args_ptr+0x30>
      8e:	0801      	ldrb r0,[r2,r0]
      90:	0317      	fsub r0,r0,r6
      92:	0000      	beq 92 <__loader_args_ptr+0x32>
      94:	0202 3305 	*unknown*
      98:	0003      	mov r0,0x0
      9a:	0200      	beq 9e <__loader_args_ptr+0x3e>
      9c:	0702 0265 	*unknown*
      a0:	0000      	beq a0 <__loader_args_ptr+0x40>
      a2:	0802      	moveq r0,r2
      a4:	1607      	fadd r0,r5,r4
      a6:	0001      	ldrb r0,[r0,r0]
      a8:	0300      	beq ae <__loader_args_ptr+0x4e>
      aa:	0504      	ldrb r0,[r1,0x2]
      ac:	6e69 0074 	*unknown*
      b0:	0504      	ldrb r0,[r1,0x2]
      b2:	0003      	mov r0,0x0
      b4:	0200      	beq b8 <__loader_args_ptr+0x58>
      b6:	6707      	fadd r3,r1,r6
      b8:	0000      	beq b8 <__loader_args_ptr+0x58>
      ba:	0400      	beq c2 <__loader_args_ptr+0x62>
      bc:	02f4      	strd r0,[r0,0x5]
      be:	0000      	beq be <__loader_args_ptr+0x5e>
      c0:	1003      	mov r0,0x80
      c2:	002f 0000 	*unknown*
      c6:	de04      	ldrb r6,[r7,0x4]
      c8:	0003      	mov r0,0x0
      ca:	0300      	beq d0 <__loader_args_ptr+0x70>
      cc:	2f27      	fmul r1,r3,r6
      ce:	0000      	beq ce <__loader_args_ptr+0x6e>
      d0:	0500      	beq da <__loader_args_ptr+0x7a>
      d2:	02a8 0000 	bbeq d6 <__loader_args_ptr+0x76>
      d6:	6504      	ldrb r3,[r1,0x2]
      d8:	2801      	ldrb r1,[r2,r0]
      da:	0000      	beq da <__loader_args_ptr+0x7a>
      dc:	0600      	beq e8 <__loader_args_ptr+0x88>
      de:	0304      	ldrb r0,[r0,0x6]
      e0:	ba4a      	lsr r5,r6,r4
      e2:	0000      	beq e2 <__loader_args_ptr+0x82>
      e4:	0700      	beq f2 <__loader_args_ptr+0x92>
      e6:	02a2 0000 	*unknown*
      ea:	4c03      	mov r2,0x60
      ec:	008f 0000 	*unknown*
      f0:	4107      	fadd r2,r0,r2
      f2:	0002      	moveq r0,r0
      f4:	0300      	beq fa <__loader_args_ptr+0x9a>
      f6:	ba4d 0000 	ldr r5,[r6],+r4
      fa:	0000      	beq fa <__loader_args_ptr+0x9a>
      fc:	4b08 0000 	beq 192 <bss_done+0x20>
     100:	ca00      	beq 94 <__loader_args_ptr+0x34>
     102:	0000      	beq 102 <_normal_start+0x2>
     104:	0900      	beq 116 <_init+0xa>
     106:	00ca      	lsr r0,r0,r1
     108:	0000      	beq 108 <_normal_start+0x8>
     10a:	0003      	mov r0,0x0
     10c:	0402      	moveq r0,r1
     10e:	c807      	fadd r6,r2,r0
     110:	0002      	moveq r0,r0
     112:	0a00      	beq 126 <_init+0x1a>
     114:	0308 f247 	beq ffe48f1a <_exit+0x71e48942>
     118:	0000      	beq 118 <_init+0xc>
     11a:	0b00      	beq 130 <_epiphany_start>
     11c:	03c8 0000 	bblt 122 <_init+0x16>
     120:	4903      	mov r2,0x48
     122:	0067      	fix r0,r0
     124:	0000      	beq 124 <_init+0x18>
     126:	0b00      	beq 13c <_epiphany_start+0xc>
     128:	03d0      	bblte 12e <_init+0x22>
     12a:	0000      	beq 12a <_init+0x1e>
     12c:	4e03      	mov r2,0x70
     12e:	009b 0000 	add r0,r0,1
     132:	0004      	ldrb r0,[r0]
     134:	5b04      	ldrb r2,[r6,0x6]
     136:	0003      	mov r0,0x0
     138:	0300      	beq 13e <_epiphany_start+0xe>
     13a:	d14f 0000 	*unknown*
     13e:	0400      	beq 146 <_epiphany_start+0x16>
     140:	0204      	ldrb r0,[r0,0x4]
     142:	0000      	beq 142 <_epiphany_start+0x12>
     144:	5303      	mov r2,0x98
     146:	006e      	asr r0,r0,0x3
     148:	0000      	beq 148 <_epiphany_start+0x18>
     14a:	040c 1c04 	ldrb r0,[r57,+0x20]
     14e:	0004      	ldrb r0,[r0]
     150:	0500      	beq 15a <_epiphany_start+0x2a>
     152:	2116      	lsl r1,r0,0x8
     154:	0000      	beq 154 <_epiphany_start+0x24>
     156:	0d00      	beq 170 <bss_loop+0x6>
     158:	0215      	strb r0,[r0],r4
     15a:	0000      	beq 15a <_epiphany_start+0x2a>
     15c:	0520      	bgtu 166 <_epiphany_start+0x36>
     15e:	682d 0001 	*unknown*
     162:	0b00      	beq 178 <bss_done+0x6>
     164:	037c 0000 	strd r0,[r0,+0x6]
     168:	2f05      	ldrb r1,[r3],r6
     16a:	0168 0000 	bgt 16c <bss_loop+0x2>
     16e:	0e00      	beq 18a <bss_done+0x18>
     170:	6b5f 0500 	*unknown*
     174:	6730      	bgteu 242 <go+0xa>
     176:	0000      	beq 176 <bss_done+0x4>
     178:	0400      	beq 180 <bss_done+0xe>
     17a:	b30b 0003 	*unknown*
     17e:	0500      	beq 188 <bss_done+0x16>
     180:	6730      	bgteu 24e <deregister_tm_clones+0x6>
     182:	0000      	beq 182 <bss_done+0x10>
     184:	0800      	beq 194 <bss_done+0x22>
     186:	fe0b 0001 	*unknown*
     18a:	0500      	beq 194 <bss_done+0x22>
     18c:	6730      	bgteu 25a <deregister_tm_clones+0x12>
     18e:	0000      	beq 18e <bss_done+0x1c>
     190:	0c00      	beq 1a8 <bss_done+0x36>
     192:	ac0b 0004 	*unknown*
     196:	0500      	beq 1a0 <bss_done+0x2e>
     198:	6730      	bgteu 266 <deregister_tm_clones+0x1e>
     19a:	0000      	beq 19a <bss_done+0x28>
     19c:	1000      	beq 1bc <RDS+0x8>
     19e:	5f0e      	asr r2,r7,0x18
     1a0:	0078 3105 	bgte 620ba0 <_PROG_SIZE_FOR_CORE_+0x520ba0>
     1a4:	016e      	asr r0,r0,0xb
     1a6:	0000      	beq 1a6 <bss_done+0x34>
     1a8:	0018 040f 	bne 81fa8 <_HEAP_SIZE_FOR_CORE_+0x1fa8>
     1ac:	0115      	strb r0,[r0],r2
     1ae:	0000      	beq 1ae <bss_done+0x3c>
     1b0:	0a08 0001 	beq 3c4 <_fini+0x18>
     1b4:	7e00      	beq 2b0 <__do_global_dtors_aux+0xc>
     1b6:	0001      	ldrb r0,[r0,r0]
     1b8:	0900      	beq 1ca <RDS+0x16>
     1ba:	00ca      	lsr r0,r0,r1
     1bc:	0000      	beq 1bc <RDS+0x8>
     1be:	0000      	beq 1be <RDS+0xa>
     1c0:	3c0d 0002 	*unknown*
     1c4:	2800      	beq 214 <custom_call+0x40>
     1c6:	3505      	ldrb r1,[r5],r2
     1c8:	01f7      	fabs rd,rn
     1ca:	0000      	beq 1ca <RDS+0x16>
     1cc:	530b 0001 	*unknown*
     1d0:	0500      	beq 1da <custom_call+0x6>
     1d2:	6737      	fmadd r3,r1,r6
     1d4:	0000      	beq 1d4 <custom_call>
     1d6:	0000      	beq 1d6 <custom_call+0x2>
     1d8:	f20b 0003 	*unknown*
     1dc:	0500      	beq 1e6 <custom_call+0x12>
     1de:	6738 0000 	bgteu 2ac <__do_global_dtors_aux+0x8>
     1e2:	0400      	beq 1ea <custom_call+0x16>
     1e4:	760b 0001 	*unknown*
     1e8:	0500      	beq 1f2 <custom_call+0x1e>
     1ea:	6739 0000 	strh r3,[r1,+r6]
     1ee:	0800      	beq 1fe <custom_call+0x2a>
     1f0:	250b 0005 	*unknown*
     1f4:	0500      	beq 1fe <custom_call+0x2a>
     1f6:	673a      	sub r3,r1,r6
     1f8:	0000      	beq 1f8 <custom_call+0x24>
     1fa:	0c00      	beq 212 <custom_call+0x3e>
     1fc:	d80b 0002 	mov r6,0xc0
     200:	0500      	beq 20a <custom_call+0x36>
     202:	673b 0000 	sub r3,r1,6
     206:	1000      	beq 226 <stack_args_loop+0xe>
     208:	be0b 0002 	mov r5,0xf0
     20c:	0500      	beq 216 <custom_call+0x42>
     20e:	673c 0000 	strh r3,[r1,+0x6]
     212:	1400      	beq 23a <go+0x2>
     214:	b10b 0004 	*unknown*
     218:	0500      	beq 222 <stack_args_loop+0xa>
     21a:	673d 0000 	strh r3,[r1],+r6
     21e:	1800      	beq 24e <deregister_tm_clones+0x6>
     220:	3d0b 0003 	*unknown*
     224:	0500      	beq 22e <std_call+0x6>
     226:	673e 0000 	*unknown*
     22a:	1c00      	beq 262 <deregister_tm_clones+0x1a>
     22c:	ec0b 0004 	*unknown*
     230:	0500      	beq 23a <go+0x2>
     232:	673f 0000 	*unknown*
     236:	2000      	beq 276 <register_tm_clones+0x2>
     238:	1000      	beq 258 <deregister_tm_clones+0x10>
     23a:	0185      	ldrb r0,[r0],r3
     23c:	0000      	beq 23c <go+0x4>
     23e:	0108 4805 	beq 900c40 <_PROG_SIZE_FOR_CORE_+0x800c40>
     242:	0237      	fmadd r0,r0,r4
     244:	0000      	beq 244 <go+0xc>
     246:	f10b 0001 	*unknown*
     24a:	0500      	beq 254 <deregister_tm_clones+0xc>
     24c:	3749 0002 	*unknown*
     250:	0000      	beq 250 <deregister_tm_clones+0x8>
     252:	7f0b 0000 	*unknown*
     256:	0500      	beq 260 <deregister_tm_clones+0x18>
     258:	374a      	lsr r1,r5,r6
     25a:	0002      	moveq r0,r0
     25c:	8000      	beq 15c <_epiphany_start+0x2c>
     25e:	0e11      	strb r0,[r3,r4]
     260:	0004      	ldrb r0,[r0]
     262:	0500      	beq 26c <deregister_tm_clones+0x24>
     264:	0a4c 0001 	ldr r0,[r2,+0xc]
     268:	0000      	beq 268 <deregister_tm_clones+0x20>
     26a:	1101      	ldrb r0,[r4,r2]
     26c:	01aa      	lsl r0,r0,r3
     26e:	0000      	beq 26e <deregister_tm_clones+0x26>
     270:	4f05      	ldrb r2,[r3],r6
     272:	010a      	eor r0,r0,r2
     274:	0000      	beq 274 <register_tm_clones>
     276:	0104      	ldrb r0,[r0,0x2]
     278:	0800      	beq 288 <register_tm_clones+0x14>
     27a:	0108 0000 	beq 27c <register_tm_clones+0x8>
     27e:	0247      	fmsub r0,r0,r4
     280:	0000      	beq 280 <register_tm_clones+0xc>
     282:	ca09 0000 	ldrb r6,[r2,+r4]
     286:	1f00      	beq 2c4 <__do_global_dtors_aux+0x20>
     288:	1000      	beq 2a8 <__do_global_dtors_aux+0x4>
     28a:	02e1      	ldrd r0,[r0,r5]
     28c:	0000      	beq 28c <register_tm_clones+0x18>
     28e:	0190      	blte 290 <register_tm_clones+0x1c>
     290:	5b05      	ldrb r2,[r6],r6
     292:	0285      	ldrb r0,[r0],r5
     294:	0000      	beq 294 <register_tm_clones+0x20>
     296:	7c0b 0003 	*unknown*
     29a:	0500      	beq 2a4 <__do_global_dtors_aux>
     29c:	855c 0002 	str r4,[r1,+0x12]
     2a0:	0000      	beq 2a0 <register_tm_clones+0x2c>
     2a2:	940b 0003 	*unknown*
     2a6:	0500      	beq 2b0 <__do_global_dtors_aux+0xc>
     2a8:	675d 0000 	str r3,[r1],+r6
     2ac:	0400      	beq 2b4 <__do_global_dtors_aux+0x10>
     2ae:	f90b 0001 	*unknown*
     2b2:	0500      	beq 2bc <__do_global_dtors_aux+0x18>
     2b4:	8b5f 0002 	*unknown*
     2b8:	0800      	beq 2c8 <__do_global_dtors_aux+0x24>
     2ba:	850b 0001 	*unknown*
     2be:	0500      	beq 2c8 <__do_global_dtors_aux+0x24>
     2c0:	f760      	bgt 2ae <__do_global_dtors_aux+0xa>
     2c2:	0001      	ldrb r0,[r0,r0]
     2c4:	8800      	beq 1d4 <custom_call>
     2c6:	0f00      	beq 2e4 <__do_global_dtors_aux+0x40>
     2c8:	4704      	ldrb r2,[r1,0x6]
     2ca:	0002      	moveq r0,r0
     2cc:	0800      	beq 2dc <__do_global_dtors_aux+0x38>
     2ce:	029b 0000 	add r0,r0,5
     2d2:	029b 0000 	add r0,r0,5
     2d6:	ca09 0000 	ldrb r6,[r2,+r4]
     2da:	1f00      	beq 318 <__do_global_dtors_aux+0x74>
     2dc:	0f00      	beq 2fa <__do_global_dtors_aux+0x56>
     2de:	a104      	ldrb r5,[r0,0x2]
     2e0:	0002      	moveq r0,r0
     2e2:	1200      	beq 306 <__do_global_dtors_aux+0x62>
     2e4:	470d 0003 	*unknown*
     2e8:	0800      	beq 2f8 <__do_global_dtors_aux+0x54>
     2ea:	7305      	ldrb r3,[r4],r6
     2ec:	02c7      	fmsub r0,r0,r5
     2ee:	0000      	beq 2ee <__do_global_dtors_aux+0x4a>
     2f0:	700b 0001 	*unknown*
     2f4:	0500      	beq 2fe <__do_global_dtors_aux+0x5a>
     2f6:	c774      	strd r6,[r1,0x6]
     2f8:	0002      	moveq r0,r0
     2fa:	0000      	beq 2fa <__do_global_dtors_aux+0x56>
     2fc:	8b0b 0000 	*unknown*
     300:	0500      	beq 30a <__do_global_dtors_aux+0x66>
     302:	6775      	strd r3,[r1],r6
     304:	0000      	beq 304 <__do_global_dtors_aux+0x60>
     306:	0400      	beq 30e <__do_global_dtors_aux+0x6a>
     308:	0f00      	beq 326 <frame_dummy+0xa>
     30a:	4b04      	ldrb r2,[r2,0x6]
     30c:	0000      	beq 30c <__do_global_dtors_aux+0x68>
     30e:	0d00      	beq 328 <frame_dummy+0xc>
     310:	0366      	lsr r0,r0,0x1b
     312:	0000      	beq 312 <__do_global_dtors_aux+0x6e>
     314:	0570      	bgte 31e <frame_dummy+0x2>
     316:	f7b3      	sub r7,r5,-1
     318:	0003      	mov r0,0x0
     31a:	0e00      	beq 336 <frame_dummy+0x1a>
     31c:	705f 0500 	*unknown*
     320:	c7b4      	strh r6,[r1,0x7]
     322:	0002      	moveq r0,r0
     324:	0000      	beq 324 <frame_dummy+0x8>
     326:	5f0e      	asr r2,r7,0x18
     328:	0072      	movgte r0,r0
     32a:	b505      	ldrb r5,[r5],r2
     32c:	0067      	fix r0,r0
     32e:	0000      	beq 32e <frame_dummy+0x12>
     330:	0e04      	ldrb r0,[r3,0x4]
     332:	775f 0500 	*unknown*
     336:	67b6      	lsl r3,r1,0x1d
     338:	0000      	beq 338 <frame_dummy+0x1c>
     33a:	0800      	beq 34a <frame_dummy+0x2e>
     33c:	a30b 0001 	*unknown*
     340:	0500      	beq 34a <frame_dummy+0x2e>
     342:	52b7      	fmadd r2,r4,r5
     344:	0000      	beq 344 <frame_dummy+0x28>
     346:	0c00      	beq 35e <main+0xe>
     348:	580b 0002 	mov r2,0xc0
     34c:	0500      	beq 356 <main+0x6>
     34e:	52b8 0000 	bbne 3f2 <_end+0x2>
     352:	0e00      	beq 36e <__do_global_ctors_aux+0x6>
     354:	5f0e      	asr r2,r7,0x18
     356:	6662 0500 	*unknown*
     35a:	a2b9 0002 	*unknown*
     35e:	1000      	beq 37e <__do_global_ctors_aux+0x16>
     360:	2d0b 0001 	*unknown*
     364:	0500      	beq 36e <__do_global_ctors_aux+0x6>
     366:	67ba      	sub r3,r1,r7
     368:	0000      	beq 368 <__do_global_ctors_aux>
     36a:	1800      	beq 39a <__do_global_ctors_aux+0x32>
     36c:	930b 0001 	*unknown*
     370:	0500      	beq 37a <__do_global_ctors_aux+0x12>
     372:	08c1      	ldr r0,[r2,r1]
     374:	0001      	ldrb r0,[r0,r0]
     376:	1c00      	beq 3ae <_fini+0x2>
     378:	2c0b 0002 	mov r1,0x60
     37c:	0500      	beq 386 <__do_global_ctors_aux+0x1e>
     37e:	5ac3      	mov r2,0xd6
     380:	0005      	ldrb r0,[r0],r0
     382:	2000      	beq 3c2 <_fini+0x16>
     384:	b70b 0002 	mov r5,0xb8
     388:	0500      	beq 392 <__do_global_ctors_aux+0x2a>
     38a:	89c5      	ldr r4,[r2],r3
     38c:	0005      	ldrb r0,[r0],r0
     38e:	2400      	beq 3d6 <__DTOR_END__+0x2>
     390:	d80b 0003 	*unknown*
     394:	0500      	beq 39e <__do_global_ctors_aux+0x36>
     396:	adc8 0005 	bblt ef0 <_end+0xb00>
     39a:	2800      	beq 3ea <__bss_start+0x2>
     39c:	060b 0005 	*unknown*
     3a0:	0500      	beq 3aa <__do_global_ctors_aux+0x42>
     3a2:	c7c9 0005 	*unknown*
     3a6:	2c00      	beq 3fe <_end+0xe>
     3a8:	5f0e      	asr r2,r7,0x18
     3aa:	6275      	strd r3,[r0],r4
     3ac:	0500      	beq 3b6 <_fini+0xa>
     3ae:	a2cc 0002 	ldr r5,[r0,+0x15]
     3b2:	3000      	beq 412 <_end+0x22>
     3b4:	5f0e      	asr r2,r7,0x18
     3b6:	7075      	strd r3,[r4],r0
     3b8:	0500      	beq 3c2 <_fini+0x16>
     3ba:	c7cd 0002 	*unknown*
     3be:	3800      	beq 42e <_end+0x3e>
     3c0:	5f0e      	asr r2,r7,0x18
     3c2:	7275      	strd r3,[r4],r4
     3c4:	0500      	beq 3ce <__CTOR_END__+0x2>
     3c6:	67ce      	asr r3,r1,0x1e
     3c8:	0000      	beq 3c8 <__CTOR_LIST__>
     3ca:	3c00      	beq 442 <_end+0x52>
     3cc:	6a0b 0001 	*unknown*
     3d0:	0500      	beq 3da <__JCR_END__+0x2>
     3d2:	cdd1      	str r6,[r3,r3]
     3d4:	0005      	ldrb r0,[r0],r0
     3d6:	4000      	beq 456 <_end+0x66>
     3d8:	de0b 0004 	*unknown*
     3dc:	0500      	beq 3e6 <__TMC_END__+0x6>
     3de:	ddd2 0005 	*unknown*
     3e2:	4300      	beq 468 <_end+0x78>
     3e4:	5f0e      	asr r2,r7,0x18
     3e6:	626c 0500 	ldrd r3,[r8,-0x4]
     3ea:	a2d5      	str r5,[r0],r5
     3ec:	0002      	moveq r0,r0
     3ee:	4800      	beq 47e <_end+0x8e>
     3f0:	b90b 0001 	*unknown*
     3f4:	0500      	beq 3fe <_end+0xe>
     3f6:	67d8 0000 	bblte 4c4 <_end+0xd4>
     3fa:	5000      	beq 49a <_end+0xaa>
     3fc:	ca0b 0001 	*unknown*
     400:	0500      	beq 40a <_end+0x1a>
     402:	79d9 0000 	str r3,[r6,+r3]
     406:	5400      	beq 4ae <_end+0xbe>
     408:	350b 0005 	*unknown*
     40c:	0500      	beq 416 <_end+0x26>
     40e:	15dc 0004 	str r0,[r5,+0x23]
     412:	5800      	beq 4c2 <_end+0xd2>
     414:	f40b 0005 	*unknown*
     418:	0500      	beq 422 <_end+0x32>
     41a:	fde0      	b 414 <_end+0x24>
     41c:	0000      	beq 41c <_end+0x2c>
     41e:	5c00      	beq 4d6 <_end+0xe6>
     420:	6e0b 0003 	*unknown*
     424:	0500      	beq 42e <_end+0x3e>
     426:	f2e2 0000 	*unknown*
     42a:	6000      	beq 4ea <_end+0xfa>
     42c:	af0b 0002 	mov r5,0x78
     430:	0500      	beq 43a <_end+0x4a>
     432:	67e3      	mov r3,0x3f
     434:	0000      	beq 434 <_end+0x44>
     436:	6800      	beq 506 <_end+0x116>
     438:	1300      	beq 45e <_end+0x6e>
     43a:	0067      	fix r0,r0
     43c:	0000      	beq 43c <_end+0x4c>
     43e:	0415      	strb r0,[r1],r0
     440:	0000      	beq 440 <_end+0x50>
     442:	1514      	strb r0,[r5,0x2]
     444:	0004      	ldrb r0,[r0]
     446:	1400      	beq 46e <_end+0x7e>
     448:	0108 0000 	beq 44a <_end+0x5a>
     44c:	4d14      	strb r2,[r3,0x2]
     44e:	0005      	ldrb r0,[r0],r0
     450:	1400      	beq 478 <_end+0x88>
     452:	0067      	fix r0,r0
     454:	0000      	beq 454 <_end+0x64>
     456:	0f00      	beq 474 <_end+0x84>
     458:	1b04      	ldrb r0,[r6,0x6]
     45a:	0004      	ldrb r0,[r0]
     45c:	1500      	beq 486 <_end+0x96>
     45e:	03bb 0000 	sub r0,r0,7
     462:	0448 3905 	blteu 720e6a <_PROG_SIZE_FOR_CORE_+0x620e6a>
     466:	4d02      	movts debugstatus,r2
     468:	0005      	ldrb r0,[r0],r0
     46a:	1600      	beq 496 <_end+0xa6>
     46c:	032c 0000 	ldrh r0,[r0,+0x6]
     470:	3b05      	ldrb r1,[r6],r6
     472:	6702 0000 	*unknown*
     476:	0000      	beq 476 <_end+0x86>
     478:	b216      	lsl r5,r4,0x10
     47a:	0001      	ldrb r0,[r0,r0]
     47c:	0500      	beq 486 <_end+0x96>
     47e:	0240      	blteu 482 <_end+0x92>
     480:	0634      	strh r0,[r1,0x4]
     482:	0000      	beq 482 <_end+0x92>
     484:	1604      	ldrb r0,[r5,0x4]
     486:	0248 0000 	blteu 48a <_end+0x9a>
     48a:	4005      	ldrb r2,[r0],r0
     48c:	3402      	moveq r1,r5
     48e:	0006      	lsr r0,r0,0x0
     490:	0800      	beq 4a0 <_end+0xb0>
     492:	0d16      	lsl r0,r3,0x8
     494:	0002      	moveq r0,r0
     496:	0500      	beq 4a0 <_end+0xb0>
     498:	0240      	blteu 49c <_end+0xac>
     49a:	0634      	strh r0,[r1,0x4]
     49c:	0000      	beq 49c <_end+0xac>
     49e:	160c 038f 	ldrb r0,[r5],-0x47c
     4a2:	0000      	beq 4a2 <_end+0xb2>
     4a4:	4205      	ldrb r2,[r0],r4
     4a6:	6702 0000 	*unknown*
     4aa:	1000      	beq 4ca <_end+0xda>
     4ac:	9916      	lsl r4,r6,0x8
     4ae:	0000      	beq 4ae <_end+0xbe>
     4b0:	0500      	beq 4ba <_end+0xca>
     4b2:	0243      	mov r0,0x12
     4b4:	0816      	lsl r0,r2,0x0
     4b6:	0000      	beq 4b6 <_end+0xc6>
     4b8:	1614      	strb r0,[r5,0x4]
     4ba:	0488 0000 	blt 4c2 <_end+0xd2>
     4be:	4505      	ldrb r2,[r1],r2
     4c0:	6702 0000 	*unknown*
     4c4:	3000      	beq 524 <_end+0x134>
     4c6:	9916      	lsl r4,r6,0x8
     4c8:	0003      	mov r0,0x0
     4ca:	0500      	beq 4d4 <_end+0xe4>
     4cc:	0246      	lsr r0,r0,0x12
     4ce:	057e 0000 	*unknown*
     4d2:	1634      	strh r0,[r5,0x4]
     4d4:	02e9 0000 	ldrd r0,[r0,+r5]
     4d8:	4805      	ldrb r2,[r2],r0
     4da:	6702 0000 	*unknown*
     4de:	3800      	beq 54e <_end+0x15e>
     4e0:	a916      	lsl r5,r2,0x8
     4e2:	0003      	mov r0,0x0
     4e4:	0500      	beq 4ee <_end+0xfe>
     4e6:	024a      	lsr r0,r0,r4
     4e8:	0831      	strh r0,[r2,r0]
     4ea:	0000      	beq 4ea <_end+0xfa>
     4ec:	163c 029a 	strh r0,[r5],+0x4d4
     4f0:	0000      	beq 4f0 <_end+0x100>
     4f2:	4d05      	ldrb r2,[r3],r2
     4f4:	6802      	moveq r3,r2
     4f6:	0001      	ldrb r0,[r0,r0]
     4f8:	4000      	beq 578 <_end+0x188>
     4fa:	3216      	lsl r1,r4,0x10
     4fc:	0002      	moveq r0,r0
     4fe:	0500      	beq 508 <_end+0x118>
     500:	024e      	asr r0,r0,0x12
     502:	0067      	fix r0,r0
     504:	0000      	beq 504 <_end+0x114>
     506:	1644      	ldr r0,[r5,0x4]
     508:	0520      	bgtu 512 <_end+0x122>
     50a:	0000      	beq 50a <_end+0x11a>
     50c:	4f05      	ldrb r2,[r3],r6
     50e:	6802      	moveq r3,r2
     510:	0001      	ldrb r0,[r0,r0]
     512:	4800      	beq 5a2 <_end+0x1b2>
     514:	fb16      	lsl r7,r6,0x18
     516:	0002      	moveq r0,r0
     518:	0500      	beq 522 <_end+0x132>
     51a:	0250      	bltu 51e <_end+0x12e>
     51c:	0837      	fmadd r0,r2,r0
     51e:	0000      	beq 51e <_end+0x12e>
     520:	164c 0250 	ldr r0,[r5],+0x284
     524:	0000      	beq 524 <_end+0x134>
     526:	5305      	ldrb r2,[r4],r6
     528:	6702 0000 	*unknown*
     52c:	5000      	beq 5cc <_end+0x1dc>
     52e:	c216      	lsl r6,r0,0x10
     530:	0001      	ldrb r0,[r0,r0]
     532:	0500      	beq 53c <_end+0x14c>
     534:	0254      	str r0,[r0,0x4]
     536:	054d 0000 	ldr r0,[r1],+r2
     53a:	1654      	str r0,[r5,0x4]
     53c:	0325      	ldrh r0,[r0],r6
     53e:	0000      	beq 53e <_end+0x14e>
     540:	7705      	ldrb r3,[r5],r6
     542:	f402      	moveq r7,r5
     544:	0007      	fadd r0,r0,r0
     546:	5800      	beq 5f6 <_end+0x206>
     548:	e117      	fsub r7,r0,r2
     54a:	0002      	moveq r0,r0
     54c:	0500      	beq 556 <_end+0x166>
     54e:	027b 0285 	*unknown*
     552:	0000      	beq 552 <_end+0x162>
     554:	0148 7817 	blteu f03356 <_PROG_SIZE_FOR_CORE_+0xe03356>
     558:	0002      	moveq r0,r0
     55a:	0500      	beq 564 <_end+0x174>
     55c:	027c 0247 	strd r0,[r0],+0x23c
     560:	0000      	beq 560 <_end+0x170>
     562:	0150      	bltu 564 <_end+0x174>
     564:	d417      	fsub r6,r5,r0
     566:	0004      	ldrb r0,[r0]
     568:	0500      	beq 572 <_end+0x182>
     56a:	0280      	blt 56e <_end+0x17e>
     56c:	0848 0000 	blteu 57c <_end+0x18c>
     570:	02e0      	b 574 <_end+0x184>
     572:	9b17      	fsub r4,r6,r6
     574:	0001      	ldrb r0,[r0,r0]
     576:	0500      	beq 580 <_end+0x190>
     578:	0285      	ldrb r0,[r0],r5
     57a:	05f9 0000 	strd r0,[r1,+r3]
     57e:	02e8 8017 	b ff003382 <_exit+0x71002daa>
     582:	0001      	ldrb r0,[r0,r0]
     584:	0500      	beq 58e <_end+0x19e>
     586:	0286      	lsr r0,r0,0x14
     588:	0854      	str r0,[r2]
     58a:	0000      	beq 58a <_end+0x19a>
     58c:	02f8 0f00 	bl 1e0590 <_PROG_SIZE_FOR_CORE_+0xe0590>
     590:	5304      	ldrb r2,[r4,0x6]
     592:	0005      	ldrb r0,[r0],r0
     594:	0200      	beq 598 <_end+0x1a8>
     596:	0801      	ldrb r0,[r2,r0]
     598:	0320      	bgtu 59e <_end+0x1ae>
     59a:	0000      	beq 59a <_end+0x1aa>
     59c:	040f 03f7 	*unknown*
     5a0:	0000      	beq 5a0 <_end+0x1b0>
     5a2:	6713      	add r3,r1,-2
     5a4:	0000      	beq 5a4 <_end+0x1b4>
     5a6:	7e00      	beq 6a2 <_end+0x2b2>
     5a8:	0005      	ldrb r0,[r0],r0
     5aa:	1400      	beq 5d2 <_end+0x1e2>
     5ac:	0415      	strb r0,[r1],r0
     5ae:	0000      	beq 5ae <_end+0x1be>
     5b0:	0814      	strb r0,[r2]
     5b2:	0001      	ldrb r0,[r0,r0]
     5b4:	1400      	beq 5dc <_end+0x1ec>
     5b6:	057e 0000 	*unknown*
     5ba:	6714      	strb r3,[r1,0x6]
     5bc:	0000      	beq 5bc <_end+0x1cc>
     5be:	0000      	beq 5be <_end+0x1ce>
     5c0:	040f 0584 	*unknown*
     5c4:	0000      	beq 5c4 <_end+0x1d4>
     5c6:	5318 0005 	bne 106c <_HALF_BANK_SIZE_+0x6c>
     5ca:	0f00      	beq 5e8 <_end+0x1f8>
     5cc:	6004      	ldrb r3,[r0]
     5ce:	0005      	ldrb r0,[r0],r0
     5d0:	1300      	beq 5f6 <_end+0x206>
     5d2:	0084      	ldrb r0,[r0,0x1]
     5d4:	0000      	beq 5d4 <_end+0x1e4>
     5d6:	05ad 0000 	ldrh r0,[r1],+r3
     5da:	1514      	strb r0,[r5,0x2]
     5dc:	0004      	ldrb r0,[r0]
     5de:	1400      	beq 606 <_end+0x216>
     5e0:	0108 0000 	beq 5e2 <_end+0x1f2>
     5e4:	8414      	strb r4,[r1]
     5e6:	0000      	beq 5e6 <_end+0x1f6>
     5e8:	1400      	beq 610 <_end+0x220>
     5ea:	0067      	fix r0,r0
     5ec:	0000      	beq 5ec <_end+0x1fc>
     5ee:	0f00      	beq 60c <_end+0x21c>
     5f0:	8f04      	ldrb r4,[r3,0x6]
     5f2:	0005      	ldrb r0,[r0],r0
     5f4:	1300      	beq 61a <_end+0x22a>
     5f6:	0067      	fix r0,r0
     5f8:	0000      	beq 5f8 <_end+0x208>
     5fa:	05c7      	fmsub r0,r1,r3
     5fc:	0000      	beq 5fc <_end+0x20c>
     5fe:	1514      	strb r0,[r5,0x2]
     600:	0004      	ldrb r0,[r0]
     602:	1400      	beq 62a <_end+0x23a>
     604:	0108 0000 	beq 606 <_end+0x216>
     608:	0f00      	beq 626 <_end+0x236>
     60a:	b304      	ldrb r5,[r4,0x6]
     60c:	0005      	ldrb r0,[r0],r0
     60e:	0800      	beq 61e <_end+0x22e>
     610:	004b 0000 	*unknown*
     614:	05dd 0000 	str r0,[r1],+r3
     618:	ca09 0000 	ldrb r6,[r2,+r4]
     61c:	0200      	beq 620 <_end+0x230>
     61e:	0800      	beq 62e <_end+0x23e>
     620:	004b 0000 	*unknown*
     624:	05ed 0000 	ldrd r0,[r1],+r3
     628:	ca09 0000 	ldrb r6,[r2,+r4]
     62c:	0000      	beq 62c <_end+0x23c>
     62e:	0500      	beq 638 <_end+0x248>
     630:	0354      	str r0,[r0,0x6]
     632:	0000      	beq 632 <_end+0x242>
     634:	1d05      	ldrb r0,[r7],r2
     636:	cd01      	ldrb r6,[r3,r2]
     638:	0002      	moveq r0,r0
     63a:	1900      	beq 66c <_end+0x27c>
     63c:	04bb 0000 	sub r0,r1,1
     640:	0510      	bne 64a <_end+0x25a>
     642:	0121      	ldrh r0,[r0,r2]
     644:	062e      	asr r0,r1,0x11
     646:	0000      	beq 646 <_end+0x256>
     648:	7c16      	lsl r3,r7,0x0
     64a:	0003      	mov r0,0x0
     64c:	0500      	beq 656 <_end+0x266>
     64e:	0123      	mov r0,0x9
     650:	062e      	asr r0,r1,0x11
     652:	0000      	beq 652 <_end+0x262>
     654:	1600      	beq 680 <_end+0x290>
     656:	025e 0000 	*unknown*
     65a:	2405      	ldrb r1,[r1],r0
     65c:	6701      	ldrb r3,[r1,r6]
     65e:	0000      	beq 65e <_end+0x26e>
     660:	0400      	beq 668 <_end+0x278>
     662:	4e16      	lsl r2,r3,0x10
     664:	0003      	mov r0,0x0
     666:	0500      	beq 670 <_end+0x280>
     668:	0125      	ldrh r0,[r0],r2
     66a:	0634      	strh r0,[r1,0x4]
     66c:	0000      	beq 66c <_end+0x27c>
     66e:	0008 040f 	beq 8246e <_HEAP_SIZE_FOR_CORE_+0x246e>
     672:	05f9 0000 	strd r0,[r1,+r3]
     676:	040f 05ed 	*unknown*
     67a:	0000      	beq 67a <_end+0x28a>
     67c:	9119 0000 	strb r4,[r4,+r2]
     680:	1000      	beq 6a0 <_end+0x2b0>
     682:	3d05      	ldrb r1,[r7],r2
     684:	6f01      	ldrb r3,[r3,r6]
     686:	0006      	lsr r0,r0,0x0
     688:	1600      	beq 6b4 <_end+0x2c4>
     68a:	03c2      	mbkpt
     68c:	0000      	beq 68c <_end+0x29c>
     68e:	3e05      	ldrb r1,[r7],r4
     690:	6f01      	ldrb r3,[r3,r6]
     692:	0006      	lsr r0,r0,0x0
     694:	0000      	beq 694 <_end+0x2a4>
     696:	fb16      	lsl r7,r6,0x18
     698:	0003      	mov r0,0x0
     69a:	0500      	beq 6a4 <_end+0x2b4>
     69c:	013f 066f 	*unknown*
     6a0:	0000      	beq 6a0 <_end+0x2b0>
     6a2:	1606      	lsr r0,r5,0x10
     6a4:	0417      	fsub r0,r1,r0
     6a6:	0000      	beq 6a6 <_end+0x2b6>
     6a8:	4005      	ldrb r2,[r0],r0
     6aa:	5901      	ldrb r2,[r6,r2]
     6ac:	0000      	beq 6ac <_end+0x2bc>
     6ae:	0c00      	beq 6c6 <_end+0x2d6>
     6b0:	0800      	beq 6c0 <_end+0x2d0>
     6b2:	0059 0000 	str r0,[r0,+r0]
     6b6:	067f 0000 	*unknown*
     6ba:	ca09 0000 	ldrb r6,[r2,+r4]
     6be:	0200      	beq 6c2 <_end+0x2d2>
     6c0:	1a00      	beq 6f4 <_end+0x304>
     6c2:	05e0      	b 6cc <_end+0x2dc>
     6c4:	0258 0780 	bltu f06c8 <_HEAP_SIZE_FOR_CORE_+0x706c8>
     6c8:	0000      	beq 6c8 <_end+0x2d8>
     6ca:	9f16      	lsl r4,r7,0x18
     6cc:	0004      	ldrb r0,[r0]
     6ce:	0500      	beq 6d8 <_end+0x2e8>
     6d0:	025a      	and r0,r0,r4
     6d2:	0028 0000 	bgtu 6d2 <_end+0x2e2>
     6d6:	1600      	beq 702 <_end+0x312>
     6d8:	0401      	ldrb r0,[r1,r0]
     6da:	0000      	beq 6da <_end+0x2ea>
     6dc:	5b05      	ldrb r2,[r6],r6
     6de:	4d02      	movts debugstatus,r2
     6e0:	0005      	ldrb r0,[r0],r0
     6e2:	0400      	beq 6ea <_end+0x2fa>
     6e4:	8d16      	lsl r4,r3,0x8
     6e6:	0002      	moveq r0,r0
     6e8:	0500      	beq 6f2 <_end+0x302>
     6ea:	025c 0780 	str r0,[r8],-0x404
     6ee:	0000      	beq 6ee <_end+0x2fe>
     6f0:	1608 04f7 	beq 9f51c <_HEAP_SIZE_FOR_CORE_+0x1f51c>
     6f4:	0000      	beq 6f4 <_end+0x304>
     6f6:	5d05      	ldrb r2,[r7],r2
     6f8:	7e02 0001 	*unknown*
     6fc:	2800      	beq 74c <_end+0x35c>
     6fe:	1d16      	lsl r0,r7,0x8
     700:	0002      	moveq r0,r0
     702:	0500      	beq 70c <_end+0x31c>
     704:	025e 0067 	*unknown*
     708:	0000      	beq 708 <_end+0x318>
     70a:	1650      	bltu 736 <_end+0x346>
     70c:	0377      	fabs rd,rn
     70e:	0000      	beq 70e <_end+0x31e>
     710:	5f05      	ldrb r2,[r7],r6
     712:	6002      	moveq r3,r0
     714:	0000      	beq 714 <_end+0x324>
     716:	5800      	beq 7c6 <_end+0x3d6>
     718:	0d16      	lsl r0,r3,0x8
     71a:	0005      	ldrb r0,[r0],r0
     71c:	0500      	beq 726 <_end+0x336>
     71e:	0260      	bgt 722 <_end+0x332>
     720:	063a      	sub r0,r1,r4
     722:	0000      	beq 722 <_end+0x332>
     724:	1660      	bgt 750 <_end+0x360>
     726:	0382 0000 	*unknown*
     72a:	6105      	ldrb r3,[r0],r2
     72c:	f202 0000 	*unknown*
     730:	7000      	beq 810 <_end+0x420>
     732:	1216      	lsl r0,r4,0x10
     734:	0005      	ldrb r0,[r0],r0
     736:	0500      	beq 740 <_end+0x350>
     738:	0262 00f2 	*unknown*
     73c:	0000      	beq 73c <_end+0x34c>
     73e:	1678 0145 	bgte 2916a <__stack_start_+0x2117a>
     742:	0000      	beq 742 <_end+0x352>
     744:	6305      	ldrb r3,[r0],r6
     746:	f202 0000 	*unknown*
     74a:	8000      	beq 64a <_end+0x25a>
     74c:	ca16      	lsl r6,r2,0x10
     74e:	0004      	ldrb r0,[r0]
     750:	0500      	beq 75a <_end+0x36a>
     752:	0264      	ldrd r0,[r0,0x4]
     754:	0790      	blte 762 <_end+0x372>
     756:	0000      	beq 756 <_end+0x366>
     758:	1688 0281 	blt 50984 <__stack_start_+0x48994>
     75c:	0000      	beq 75c <_end+0x36c>
     75e:	6505      	ldrb r3,[r1],r2
     760:	a002      	moveq r5,r0
     762:	0007      	fadd r0,r0,r0
     764:	9000      	beq 684 <_end+0x294>
     766:	2416      	lsl r1,r1,0x0
     768:	0004      	ldrb r0,[r0]
     76a:	0500      	beq 774 <_end+0x384>
     76c:	0266      	lsr r0,r0,0x13
     76e:	0067      	fix r0,r0
     770:	0000      	beq 770 <_end+0x380>
     772:	16a8 01e3 	bbeq 3cd9e <__stack_start_+0x34dae>
     776:	0000      	beq 776 <_end+0x386>
     778:	6705      	ldrb r3,[r1],r6
     77a:	f202 0000 	*unknown*
     77e:	b000      	beq 6de <_end+0x2ee>
     780:	3616      	lsl r1,r5,0x10
     782:	0001      	ldrb r0,[r0,r0]
     784:	0500      	beq 78e <_end+0x39e>
     786:	0268 00f2 	bgt 1eb8a <__stack_start_+0x16b9a>
     78a:	0000      	beq 78a <_end+0x39a>
     78c:	16b8 01d2 	bbne 3abb8 <__stack_start_+0x32bc8>
     790:	0000      	beq 790 <_end+0x3a0>
     792:	6905      	ldrb r3,[r2],r2
     794:	f202 0000 	*unknown*
     798:	c000      	beq 718 <_end+0x328>
     79a:	f616      	lsl r7,r5,0x10
     79c:	0000      	beq 79c <_end+0x3ac>
     79e:	0500      	beq 7a8 <_end+0x3b8>
     7a0:	026a      	asr r0,r0,r4
     7a2:	00f2 0000 	*unknown*
     7a6:	16c8 0105 	bblt 211d2 <__stack_start_+0x191e2>
     7aa:	0000      	beq 7aa <_end+0x3ba>
     7ac:	6b05      	ldrb r3,[r2],r6
     7ae:	f202 0000 	*unknown*
     7b2:	d000      	beq 752 <_end+0x362>
     7b4:	2a16      	lsl r1,r2,0x10
     7b6:	0003      	mov r0,0x0
     7b8:	0500      	beq 7c2 <_end+0x3d2>
     7ba:	026c 0067 	ldrd r0,[r0,+0x33c]
     7be:	0000      	beq 7be <_end+0x3ce>
     7c0:	00d8 5308 	bblte a617c0 <_PROG_SIZE_FOR_CORE_+0x9617c0>
     7c4:	0005      	ldrb r0,[r0],r0
     7c6:	9000      	beq 6e6 <_end+0x2f6>
     7c8:	0007      	fadd r0,r0,r0
     7ca:	0900      	beq 7dc <_end+0x3ec>
     7cc:	00ca      	lsr r0,r0,r1
     7ce:	0000      	beq 7ce <_end+0x3de>
     7d0:	0019 5308 	*unknown*
     7d4:	0005      	ldrb r0,[r0],r0
     7d6:	a000      	beq 716 <_end+0x326>
     7d8:	0007      	fadd r0,r0,r0
     7da:	0900      	beq 7ec <_end+0x3fc>
     7dc:	00ca      	lsr r0,r0,r1
     7de:	0000      	beq 7de <_end+0x3ee>
     7e0:	0007      	fadd r0,r0,r0
     7e2:	5308 0005 	beq 1288 <_HALF_BANK_SIZE_+0x288>
     7e6:	b000      	beq 746 <_end+0x356>
     7e8:	0007      	fadd r0,r0,r0
     7ea:	0900      	beq 7fc <_end+0x40c>
     7ec:	00ca      	lsr r0,r0,r1
     7ee:	0000      	beq 7ee <_end+0x3fe>
     7f0:	0017      	fsub r0,r0,r0
     7f2:	f01a      	add r7,r4,r0
     7f4:	7105      	ldrb r3,[r4],r2
     7f6:	d402      	moveq r6,r5
     7f8:	0007      	fadd r0,r0,r0
     7fa:	1600      	beq 826 <_end+0x436>
     7fc:	02d1      	str r0,[r0,r5]
     7fe:	0000      	beq 7fe <_end+0x40e>
     800:	7405      	ldrb r3,[r5],r0
     802:	d402      	moveq r6,r5
     804:	0007      	fadd r0,r0,r0
     806:	0000      	beq 806 <_end+0x416>
     808:	c116      	lsl r6,r0,0x8
     80a:	0004      	ldrb r0,[r0]
     80c:	0500      	beq 816 <_end+0x426>
     80e:	0275      	strd r0,[r0],r4
     810:	07e4      	ldrd r0,[r1,0x7]
     812:	0000      	beq 812 <_end+0x422>
     814:	0078 c708 	bgte ff8e1814 <_exit+0x718e123c>
     818:	0002      	moveq r0,r0
     81a:	e400      	beq 7e2 <_end+0x3f2>
     81c:	0007      	fadd r0,r0,r0
     81e:	0900      	beq 830 <_end+0x440>
     820:	00ca      	lsr r0,r0,r1
     822:	0000      	beq 822 <_end+0x432>
     824:	001d 2808 	*unknown*
     828:	0000      	beq 828 <_end+0x438>
     82a:	f400      	beq 812 <_end+0x422>
     82c:	0007      	fadd r0,r0,r0
     82e:	0900      	beq 840 <_end+0x450>
     830:	00ca      	lsr r0,r0,r1
     832:	0000      	beq 832 <_end+0x442>
     834:	001d f01b 	*unknown*
     838:	5605      	ldrb r2,[r5],r4
     83a:	1602 0008 	*unknown*
     83e:	1c00      	beq 876 <_end+0x486>
     840:	03bb 0000 	sub r0,r0,7
     844:	6d05      	ldrb r3,[r3],r2
     846:	7f02 0006 	*unknown*
     84a:	1c00      	beq 882 <_end+0x492>
     84c:	04e4      	ldrd r0,[r1,0x1]
     84e:	0000      	beq 84e <_end+0x45e>
     850:	7605      	ldrb r3,[r5],r4
     852:	b002      	moveq r5,r4
     854:	0007      	fadd r0,r0,r0
     856:	0000      	beq 856 <_end+0x466>
     858:	5308 0005 	beq 12fe <_HALF_BANK_SIZE_+0x2fe>
     85c:	2600      	beq 8a8 <_end+0x4b8>
     85e:	0008 0900 	beq 12085e <_PROG_SIZE_FOR_CORE_+0x2085e>
     862:	00ca      	lsr r0,r0,r1
     864:	0000      	beq 864 <_end+0x474>
     866:	0018 311d 	bne 624266 <_PROG_SIZE_FOR_CORE_+0x524266>
     86a:	0008 1400 	beq 28086a <_PROG_SIZE_FOR_CORE_+0x18086a>
     86e:	0415      	strb r0,[r1],r0
     870:	0000      	beq 870 <_end+0x480>
     872:	0f00      	beq 890 <_end+0x4a0>
     874:	2604      	ldrb r1,[r1,0x4]
     876:	0008 0f00 	beq 1e0876 <_PROG_SIZE_FOR_CORE_+0xe0876>
     87a:	6804      	ldrb r3,[r2]
     87c:	0001      	ldrb r0,[r0,r0]
     87e:	1d00      	beq 8b8 <_end+0x4c8>
     880:	0848 0000 	blteu 890 <_end+0x4a0>
     884:	6714      	strb r3,[r1,0x6]
     886:	0000      	beq 886 <_end+0x496>
     888:	0000      	beq 888 <_end+0x498>
     88a:	040f 084e 	*unknown*
     88e:	0000      	beq 88e <_end+0x49e>
     890:	040f 083d 	*unknown*
     894:	0000      	beq 894 <_end+0x4a4>
     896:	ed08 0005 	beq 1470 <_HALF_BANK_SIZE_+0x470>
     89a:	6400      	beq 962 <_end+0x572>
     89c:	0008 0900 	beq 12089c <_PROG_SIZE_FOR_CORE_+0x2089c>
     8a0:	00ca      	lsr r0,r0,r1
     8a2:	0000      	beq 8a2 <_end+0x4b2>
     8a4:	0002      	moveq r0,r0
     8a6:	e41e      	bitr r7,r1
     8a8:	0002      	moveq r0,r0
     8aa:	0600      	beq 8b6 <_end+0x4c6>
     8ac:	0055      	str r0,[r0],r0
     8ae:	0000      	beq 8ae <_end+0x4be>
     8b0:	3a8e      	asr r1,r6,0x14
     8b2:	0000      	beq 8b2 <_end+0x4c2>
     8b4:	0100      	beq 8b6 <_end+0x4c6>
     8b6:	aa9c 0008 	strb r5,[r2,+0x45]
     8ba:	1f00      	beq 8f8 <_end+0x508>
     8bc:	049a      	add r0,r1,r1
     8be:	0000      	beq 8be <_end+0x4ce>
     8c0:	3a01      	ldrb r1,[r6,r4]
     8c2:	0067      	fix r0,r0
     8c4:	0000      	beq 8c4 <_end+0x4d4>
     8c6:	0000      	beq 8c6 <_end+0x4d6>
     8c8:	0000      	beq 8c8 <_end+0x4d8>
     8ca:	1a20      	bgtu 8fe <_end+0x50e>
     8cc:	0000      	beq 8cc <_end+0x4dc>
     8ce:	9d8e      	asr r4,r7,0xc
     8d0:	0008 2100 	beq 4208d0 <_PROG_SIZE_FOR_CORE_+0x3208d0>
     8d4:	5001      	ldrb r2,[r4,r0]
     8d6:	7402      	moveq r3,r5
     8d8:	2100      	beq 91a <_end+0x52a>
     8da:	5101      	ldrb r2,[r4,r2]
     8dc:	3001      	ldrb r1,[r4,r0]
     8de:	2200      	beq 922 <_end+0x532>
     8e0:	003a      	sub r0,r0,r0
     8e2:	8e00      	beq 7fe <_end+0x40e>
     8e4:	0121      	ldrh r0,[r0,r2]
     8e6:	0250      	bltu 8ea <_end+0x4fa>
     8e8:	0074      	strd r0,[r0]
     8ea:	0000      	beq 8ea <_end+0x4fa>
     8ec:	7523      	mov r3,0xa9
     8ee:	0004      	ldrb r0,[r0]
     8f0:	0500      	beq 8fa <_end+0x50a>
     8f2:	02fb 08b6 	*unknown*
     8f6:	0000      	beq 8f6 <_end+0x506>
     8f8:	1518 0004 	bne 1122 <_HALF_BANK_SIZE_+0x122>
     8fc:	0000      	beq 8fc <_end+0x50c>
     8fe:	0893      	add r0,r2,1
     900:	0000      	beq 900 <_end+0x510>
     902:	0004      	ldrb r0,[r0]
     904:	01f6      	lsl r0,r0,0xf
     906:	0000      	beq 906 <_end+0x516>
     908:	0104      	ldrb r0,[r0,0x2]
     90a:	00a4      	ldrh r0,[r0,0x1]
     90c:	0000      	beq 90c <_end+0x51c>
     90e:	3b0c 0005 	ldrb r1,[r6,+0x2e]
     912:	9d00      	beq 84c <_end+0x45c>
     914:	0001      	ldrb r0,[r0,r0]
     916:	0200      	beq 91a <_end+0x52a>
     918:	0504      	ldrb r0,[r1,0x2]
     91a:	0161      	ldrd r0,[r0,r2]
     91c:	0000      	beq 91c <_end+0x52c>
     91e:	0402      	moveq r0,r1
     920:	1b07      	fadd r0,r6,r6
     922:	0001      	ldrb r0,[r0,r0]
     924:	0200      	beq 928 <_end+0x538>
     926:	0704      	ldrb r0,[r1,0x6]
     928:	0120      	bgtu 92a <_end+0x53a>
     92a:	0000      	beq 92a <_end+0x53a>
     92c:	0802      	moveq r0,r2
     92e:	5c05      	ldrb r2,[r7],r0
     930:	0001      	ldrb r0,[r0,r0]
     932:	0200      	beq 936 <_end+0x546>
     934:	0408 03e6 	beq 7d53c <__stack_start_+0x7554c>
     938:	0000      	beq 938 <_end+0x548>
     93a:	0102      	movts config,r0
     93c:	1906      	lsr r0,r6,0x8
     93e:	0003      	mov r0,0x0
     940:	0200      	beq 944 <_end+0x554>
     942:	0801      	ldrb r0,[r2,r0]
     944:	0317      	fsub r0,r0,r6
     946:	0000      	beq 946 <_end+0x556>
     948:	0202 3305 	*unknown*
     94c:	0003      	mov r0,0x0
     94e:	0200      	beq 952 <_end+0x562>
     950:	0702 0265 	*unknown*
     954:	0000      	beq 954 <_end+0x564>
     956:	0802      	moveq r0,r2
     958:	1607      	fadd r0,r5,r4
     95a:	0001      	ldrb r0,[r0,r0]
     95c:	0300      	beq 962 <_end+0x572>
     95e:	0504      	ldrb r0,[r1,0x2]
     960:	6e69 0074 	*unknown*
     964:	0504      	ldrb r0,[r1,0x2]
     966:	0003      	mov r0,0x0
     968:	0100      	beq 96a <_end+0x57a>
     96a:	5f07      	fadd r2,r7,r6
     96c:	0000      	beq 96c <_end+0x57c>
     96e:	0400      	beq 976 <_end+0x586>
     970:	02f4      	strd r0,[r0,0x5]
     972:	0000      	beq 972 <_end+0x582>
     974:	1002      	moveq r0,r4
     976:	0019 0000 	strb r0,[r0,+r0]
     97a:	de04      	ldrb r6,[r7,0x4]
     97c:	0003      	mov r0,0x0
     97e:	0200      	beq 982 <_end+0x592>
     980:	1927      	fmul r0,r6,r2
     982:	0000      	beq 982 <_end+0x592>
     984:	0500      	beq 98e <_end+0x59e>
     986:	02a8 0000 	bbeq 98a <_end+0x59a>
     98a:	6503      	mov r3,0x28
     98c:	2701      	ldrb r1,[r1,r6]
     98e:	0000      	beq 98e <_end+0x59e>
     990:	0600      	beq 99c <_end+0x5ac>
     992:	0204      	ldrb r0,[r0,0x4]
     994:	b24a      	lsr r5,r4,r4
     996:	0000      	beq 996 <_end+0x5a6>
     998:	0700      	beq 9a6 <_end+0x5b6>
     99a:	02a2 0000 	*unknown*
     99e:	4c02      	moveq r2,r3
     9a0:	0087      	fadd r0,r0,r1
     9a2:	0000      	beq 9a2 <_end+0x5b2>
     9a4:	4107      	fadd r2,r0,r2
     9a6:	0002      	moveq r0,r0
     9a8:	0200      	beq 9ac <_end+0x5bc>
     9aa:	b24d 0000 	ldr r5,[r4],+r4
     9ae:	0000      	beq 9ae <_end+0x5be>
     9b0:	4308 0000 	beq a36 <_end+0x646>
     9b4:	c200      	beq 938 <_end+0x548>
     9b6:	0000      	beq 9b6 <_end+0x5c6>
     9b8:	0900      	beq 9ca <_end+0x5da>
     9ba:	00c2      	movblt r0,r0
     9bc:	0000      	beq 9bc <_end+0x5cc>
     9be:	0003      	mov r0,0x0
     9c0:	0402      	moveq r0,r1
     9c2:	c807      	fadd r6,r2,r0
     9c4:	0002      	moveq r0,r0
     9c6:	0a00      	beq 9da <_end+0x5ea>
     9c8:	0208 ea47 	beq ffd497cc <_exit+0x71d491f4>
     9cc:	0000      	beq 9cc <_end+0x5dc>
     9ce:	0b00      	beq 9e4 <_end+0x5f4>
     9d0:	03c8 0000 	bblt 9d6 <_end+0x5e6>
     9d4:	4902      	movts pc,r2
     9d6:	005f 0000 	*unknown*
     9da:	0b00      	beq 9f0 <_end+0x600>
     9dc:	03d0      	bblte 9e2 <_end+0x5f2>
     9de:	0000      	beq 9de <_end+0x5ee>
     9e0:	4e02 0093 	*unknown*
     9e4:	0000      	beq 9e4 <_end+0x5f4>
     9e6:	0004      	ldrb r0,[r0]
     9e8:	5b04      	ldrb r2,[r6,0x6]
     9ea:	0003      	mov r0,0x0
     9ec:	0200      	beq 9f0 <_end+0x600>
     9ee:	c94f 0000 	*unknown*
     9f2:	0400      	beq 9fa <_end+0x60a>
     9f4:	0204      	ldrb r0,[r0,0x4]
     9f6:	0000      	beq 9f6 <_end+0x606>
     9f8:	5302 0066 	*unknown*
     9fc:	0000      	beq 9fc <_end+0x60c>
     9fe:	040c 1c04 	ldrb r0,[r57,+0x20]
     a02:	0004      	ldrb r0,[r0]
     a04:	0400      	beq a0c <_end+0x61c>
     a06:	2016      	lsl r1,r0,0x0
     a08:	0000      	beq a08 <_end+0x618>
     a0a:	0d00      	beq a24 <_end+0x634>
     a0c:	0215      	strb r0,[r0],r4
     a0e:	0000      	beq a0e <_end+0x61e>
     a10:	0420      	bgtu a18 <_end+0x628>
     a12:	602d 0001 	*unknown*
     a16:	0b00      	beq a2c <_end+0x63c>
     a18:	037c 0000 	strd r0,[r0,+0x6]
     a1c:	2f04      	ldrb r1,[r3,0x6]
     a1e:	0160      	bgt a20 <_end+0x630>
     a20:	0000      	beq a20 <_end+0x630>
     a22:	0e00      	beq a3e <_end+0x64e>
     a24:	6b5f 0400 	*unknown*
     a28:	5f30      	bgteu ae6 <_end+0x6f6>
     a2a:	0000      	beq a2a <_end+0x63a>
     a2c:	0400      	beq a34 <_end+0x644>
     a2e:	b30b 0003 	*unknown*
     a32:	0400      	beq a3a <_end+0x64a>
     a34:	5f30      	bgteu af2 <_end+0x702>
     a36:	0000      	beq a36 <_end+0x646>
     a38:	0800      	beq a48 <_end+0x658>
     a3a:	fe0b 0001 	*unknown*
     a3e:	0400      	beq a46 <_end+0x656>
     a40:	5f30      	bgteu afe <_end+0x70e>
     a42:	0000      	beq a42 <_end+0x652>
     a44:	0c00      	beq a5c <_end+0x66c>
     a46:	ac0b 0004 	*unknown*
     a4a:	0400      	beq a52 <_end+0x662>
     a4c:	5f30      	bgteu b0a <_end+0x71a>
     a4e:	0000      	beq a4e <_end+0x65e>
     a50:	1000      	beq a70 <_end+0x680>
     a52:	5f0e      	asr r2,r7,0x18
     a54:	0078 3104 	bgte 621254 <_PROG_SIZE_FOR_CORE_+0x521254>
     a58:	0166      	lsr r0,r0,0xb
     a5a:	0000      	beq a5a <_end+0x66a>
     a5c:	0018 040f 	bne 8285c <_HEAP_SIZE_FOR_CORE_+0x285c>
     a60:	010d 0000 	ldrb r0,[r0],+r2
     a64:	0208 0001 	beq c68 <_end+0x878>
     a68:	7600      	beq b54 <_end+0x764>
     a6a:	0001      	ldrb r0,[r0,r0]
     a6c:	0900      	beq a7e <_end+0x68e>
     a6e:	00c2      	movblt r0,r0
     a70:	0000      	beq a70 <_end+0x680>
     a72:	0000      	beq a72 <_end+0x682>
     a74:	3c0d 0002 	*unknown*
     a78:	2800      	beq ac8 <_end+0x6d8>
     a7a:	3504      	ldrb r1,[r5,0x2]
     a7c:	01ef 0000 	*unknown*
     a80:	530b 0001 	*unknown*
     a84:	0400      	beq a8c <_end+0x69c>
     a86:	5f37      	fmadd r2,r7,r6
     a88:	0000      	beq a88 <_end+0x698>
     a8a:	0000      	beq a8a <_end+0x69a>
     a8c:	f20b 0003 	*unknown*
     a90:	0400      	beq a98 <_end+0x6a8>
     a92:	5f38 0000 	bgteu b50 <_end+0x760>
     a96:	0400      	beq a9e <_end+0x6ae>
     a98:	760b 0001 	*unknown*
     a9c:	0400      	beq aa4 <_end+0x6b4>
     a9e:	5f39 0000 	strh r2,[r7,+r6]
     aa2:	0800      	beq ab2 <_end+0x6c2>
     aa4:	250b 0005 	*unknown*
     aa8:	0400      	beq ab0 <_end+0x6c0>
     aaa:	5f3a      	sub r2,r7,r6
     aac:	0000      	beq aac <_end+0x6bc>
     aae:	0c00      	beq ac6 <_end+0x6d6>
     ab0:	d80b 0002 	mov r6,0xc0
     ab4:	0400      	beq abc <_end+0x6cc>
     ab6:	5f3b 0000 	sub r2,r7,6
     aba:	1000      	beq ada <_end+0x6ea>
     abc:	be0b 0002 	mov r5,0xf0
     ac0:	0400      	beq ac8 <_end+0x6d8>
     ac2:	5f3c 0000 	strh r2,[r7,+0x6]
     ac6:	1400      	beq aee <_end+0x6fe>
     ac8:	b10b 0004 	*unknown*
     acc:	0400      	beq ad4 <_end+0x6e4>
     ace:	5f3d 0000 	strh r2,[r7],+r6
     ad2:	1800      	beq b02 <_end+0x712>
     ad4:	3d0b 0003 	*unknown*
     ad8:	0400      	beq ae0 <_end+0x6f0>
     ada:	5f3e 0000 	*unknown*
     ade:	1c00      	beq b16 <_end+0x726>
     ae0:	ec0b 0004 	*unknown*
     ae4:	0400      	beq aec <_end+0x6fc>
     ae6:	5f3f 0000 	*unknown*
     aea:	2000      	beq b2a <_end+0x73a>
     aec:	1000      	beq b0c <_end+0x71c>
     aee:	0185      	ldrb r0,[r0],r3
     af0:	0000      	beq af0 <_end+0x700>
     af2:	0108 4804 	beq 9012f4 <_PROG_SIZE_FOR_CORE_+0x8012f4>
     af6:	022f 0000 	*unknown*
     afa:	f10b 0001 	*unknown*
     afe:	0400      	beq b06 <_end+0x716>
     b00:	2f49 0002 	*unknown*
     b04:	0000      	beq b04 <_end+0x714>
     b06:	7f0b 0000 	*unknown*
     b0a:	0400      	beq b12 <_end+0x722>
     b0c:	2f4a      	lsr r1,r3,r6
     b0e:	0002      	moveq r0,r0
     b10:	8000      	beq a10 <_end+0x620>
     b12:	0e11      	strb r0,[r3,r4]
     b14:	0004      	ldrb r0,[r0]
     b16:	0400      	beq b1e <_end+0x72e>
     b18:	024c 0001 	ldr r0,[r0,+0xc]
     b1c:	0000      	beq b1c <_end+0x72c>
     b1e:	1101      	ldrb r0,[r4,r2]
     b20:	01aa      	lsl r0,r0,r3
     b22:	0000      	beq b22 <_end+0x732>
     b24:	4f04      	ldrb r2,[r3,0x6]
     b26:	0102      	movts config,r0
     b28:	0000      	beq b28 <_end+0x738>
     b2a:	0104      	ldrb r0,[r0,0x2]
     b2c:	0800      	beq b3c <_end+0x74c>
     b2e:	0100      	beq b30 <_end+0x740>
     b30:	0000      	beq b30 <_end+0x740>
     b32:	023f 0000 	*unknown*
     b36:	c209 0000 	ldrb r6,[r0,+r4]
     b3a:	1f00      	beq b78 <_end+0x788>
     b3c:	1000      	beq b5c <_end+0x76c>
     b3e:	02e1      	ldrd r0,[r0,r5]
     b40:	0000      	beq b40 <_end+0x750>
     b42:	0190      	blte b44 <_end+0x754>
     b44:	5b04      	ldrb r2,[r6,0x6]
     b46:	027d 0000 	strd r0,[r0],+r4
     b4a:	7c0b 0003 	*unknown*
     b4e:	0400      	beq b56 <_end+0x766>
     b50:	7d5c 0002 	str r3,[r7,+0x12]
     b54:	0000      	beq b54 <_end+0x764>
     b56:	940b 0003 	*unknown*
     b5a:	0400      	beq b62 <_end+0x772>
     b5c:	5f5d 0000 	str r2,[r7],+r6
     b60:	0400      	beq b68 <_end+0x778>
     b62:	f90b 0001 	*unknown*
     b66:	0400      	beq b6e <_end+0x77e>
     b68:	835f 0002 	*unknown*
     b6c:	0800      	beq b7c <_end+0x78c>
     b6e:	850b 0001 	*unknown*
     b72:	0400      	beq b7a <_end+0x78a>
     b74:	ef60      	bgt b52 <_end+0x762>
     b76:	0001      	ldrb r0,[r0,r0]
     b78:	8800      	beq a88 <_end+0x698>
     b7a:	0f00      	beq b98 <_end+0x7a8>
     b7c:	3f04      	ldrb r1,[r7,0x6]
     b7e:	0002      	moveq r0,r0
     b80:	0800      	beq b90 <_end+0x7a0>
     b82:	0293      	add r0,r0,-3
     b84:	0000      	beq b84 <_end+0x794>
     b86:	0293      	add r0,r0,-3
     b88:	0000      	beq b88 <_end+0x798>
     b8a:	c209 0000 	ldrb r6,[r0,+r4]
     b8e:	1f00      	beq bcc <_end+0x7dc>
     b90:	0f00      	beq bae <_end+0x7be>
     b92:	9904      	ldrb r4,[r6,0x2]
     b94:	0002      	moveq r0,r0
     b96:	1200      	beq bba <_end+0x7ca>
     b98:	470d 0003 	*unknown*
     b9c:	0800      	beq bac <_end+0x7bc>
     b9e:	7304      	ldrb r3,[r4,0x6]
     ba0:	02bf 0000 	*unknown*
     ba4:	700b 0001 	*unknown*
     ba8:	0400      	beq bb0 <_end+0x7c0>
     baa:	bf74      	strd r5,[r7,0x6]
     bac:	0002      	moveq r0,r0
     bae:	0000      	beq bae <_end+0x7be>
     bb0:	8b0b 0000 	*unknown*
     bb4:	0400      	beq bbc <_end+0x7cc>
     bb6:	5f75      	strd r2,[r7],r6
     bb8:	0000      	beq bb8 <_end+0x7c8>
     bba:	0400      	beq bc2 <_end+0x7d2>
     bbc:	0f00      	beq bda <_end+0x7ea>
     bbe:	4304      	ldrb r2,[r0,0x6]
     bc0:	0000      	beq bc0 <_end+0x7d0>
     bc2:	0d00      	beq bdc <_end+0x7ec>
     bc4:	0366      	lsr r0,r0,0x1b
     bc6:	0000      	beq bc6 <_end+0x7d6>
     bc8:	0470      	bgte bd0 <_end+0x7e0>
     bca:	efb3      	sub r7,r3,-1
     bcc:	0003      	mov r0,0x0
     bce:	0e00      	beq bea <_end+0x7fa>
     bd0:	705f 0400 	*unknown*
     bd4:	bfb4      	strh r5,[r7,0x7]
     bd6:	0002      	moveq r0,r0
     bd8:	0000      	beq bd8 <_end+0x7e8>
     bda:	5f0e      	asr r2,r7,0x18
     bdc:	0072      	movgte r0,r0
     bde:	b504      	ldrb r5,[r5,0x2]
     be0:	005f 0000 	*unknown*
     be4:	0e04      	ldrb r0,[r3,0x4]
     be6:	775f 0400 	*unknown*
     bea:	5fb6      	lsl r2,r7,0x1d
     bec:	0000      	beq bec <_end+0x7fc>
     bee:	0800      	beq bfe <_end+0x80e>
     bf0:	a30b 0001 	*unknown*
     bf4:	0400      	beq bfc <_end+0x80c>
     bf6:	4ab7      	fmadd r2,r2,r5
     bf8:	0000      	beq bf8 <_end+0x808>
     bfa:	0c00      	beq c12 <_end+0x822>
     bfc:	580b 0002 	mov r2,0xc0
     c00:	0400      	beq c08 <_end+0x818>
     c02:	4ab8 0000 	bbne c96 <_end+0x8a6>
     c06:	0e00      	beq c22 <_end+0x832>
     c08:	5f0e      	asr r2,r7,0x18
     c0a:	6662 0400 	*unknown*
     c0e:	9ab9 0002 	*unknown*
     c12:	1000      	beq c32 <_end+0x842>
     c14:	2d0b 0001 	*unknown*
     c18:	0400      	beq c20 <_end+0x830>
     c1a:	5fba      	sub r2,r7,r7
     c1c:	0000      	beq c1c <_end+0x82c>
     c1e:	1800      	beq c4e <_end+0x85e>
     c20:	930b 0001 	*unknown*
     c24:	0400      	beq c2c <_end+0x83c>
     c26:	00c1      	ldr r0,[r0,r1]
     c28:	0001      	ldrb r0,[r0,r0]
     c2a:	1c00      	beq c62 <_end+0x872>
     c2c:	2c0b 0002 	mov r1,0x60
     c30:	0400      	beq c38 <_end+0x848>
     c32:	52c3      	mov r2,0x96
     c34:	0005      	ldrb r0,[r0],r0
     c36:	2000      	beq c76 <_end+0x886>
     c38:	b70b 0002 	mov r5,0xb8
     c3c:	0400      	beq c44 <_end+0x854>
     c3e:	81c5      	ldr r4,[r0],r3
     c40:	0005      	ldrb r0,[r0],r0
     c42:	2400      	beq c8a <_end+0x89a>
     c44:	d80b 0003 	*unknown*
     c48:	0400      	beq c50 <_end+0x860>
     c4a:	a5c8 0005 	bblt 1794 <_HALF_BANK_SIZE_+0x794>
     c4e:	2800      	beq c9e <_end+0x8ae>
     c50:	060b 0005 	*unknown*
     c54:	0400      	beq c5c <_end+0x86c>
     c56:	bfc9 0005 	*unknown*
     c5a:	2c00      	beq cb2 <_end+0x8c2>
     c5c:	5f0e      	asr r2,r7,0x18
     c5e:	6275      	strd r3,[r0],r4
     c60:	0400      	beq c68 <_end+0x878>
     c62:	9acc 0002 	ldr r4,[r6,+0x15]
     c66:	3000      	beq cc6 <_end+0x8d6>
     c68:	5f0e      	asr r2,r7,0x18
     c6a:	7075      	strd r3,[r4],r0
     c6c:	0400      	beq c74 <_end+0x884>
     c6e:	bfcd 0002 	*unknown*
     c72:	3800      	beq ce2 <_end+0x8f2>
     c74:	5f0e      	asr r2,r7,0x18
     c76:	7275      	strd r3,[r4],r4
     c78:	0400      	beq c80 <_end+0x890>
     c7a:	5fce      	asr r2,r7,0x1e
     c7c:	0000      	beq c7c <_end+0x88c>
     c7e:	3c00      	beq cf6 <_end+0x906>
     c80:	6a0b 0001 	*unknown*
     c84:	0400      	beq c8c <_end+0x89c>
     c86:	c5d1      	str r6,[r1,r3]
     c88:	0005      	ldrb r0,[r0],r0
     c8a:	4000      	beq d0a <_end+0x91a>
     c8c:	de0b 0004 	*unknown*
     c90:	0400      	beq c98 <_end+0x8a8>
     c92:	d5d2 0005 	*unknown*
     c96:	4300      	beq d1c <_end+0x92c>
     c98:	5f0e      	asr r2,r7,0x18
     c9a:	626c 0400 	ldrd r3,[r8,+0x4]
     c9e:	9ad5      	str r4,[r6],r5
     ca0:	0002      	moveq r0,r0
     ca2:	4800      	beq d32 <_end+0x942>
     ca4:	b90b 0001 	*unknown*
     ca8:	0400      	beq cb0 <_end+0x8c0>
     caa:	5fd8 0000 	bblte d68 <_end+0x978>
     cae:	5000      	beq d4e <_end+0x95e>
     cb0:	ca0b 0001 	*unknown*
     cb4:	0400      	beq cbc <_end+0x8cc>
     cb6:	71d9 0000 	str r3,[r4,+r3]
     cba:	5400      	beq d62 <_end+0x972>
     cbc:	350b 0005 	*unknown*
     cc0:	0400      	beq cc8 <_end+0x8d8>
     cc2:	0ddc 0004 	str r0,[r3,+0x23]
     cc6:	5800      	beq d76 <_end+0x986>
     cc8:	f40b 0005 	*unknown*
     ccc:	0400      	beq cd4 <_end+0x8e4>
     cce:	f5e0      	b cb8 <_end+0x8c8>
     cd0:	0000      	beq cd0 <_end+0x8e0>
     cd2:	5c00      	beq d8a <_end+0x99a>
     cd4:	6e0b 0003 	*unknown*
     cd8:	0400      	beq ce0 <_end+0x8f0>
     cda:	eae2 0000 	*unknown*
     cde:	6000      	beq d9e <_end+0x9ae>
     ce0:	af0b 0002 	mov r5,0x78
     ce4:	0400      	beq cec <_end+0x8fc>
     ce6:	5fe3      	mov r2,0xff
     ce8:	0000      	beq ce8 <_end+0x8f8>
     cea:	6800      	beq dba <_end+0x9ca>
     cec:	1300      	beq d12 <_end+0x922>
     cee:	005f 0000 	*unknown*
     cf2:	040d 0000 	ldrb r0,[r1],+r0
     cf6:	0d14      	strb r0,[r3,0x2]
     cf8:	0004      	ldrb r0,[r0]
     cfa:	1400      	beq d22 <_end+0x932>
     cfc:	0100      	beq cfe <_end+0x90e>
     cfe:	0000      	beq cfe <_end+0x90e>
     d00:	4514      	strb r2,[r1,0x2]
     d02:	0005      	ldrb r0,[r0],r0
     d04:	1400      	beq d2c <_end+0x93c>
     d06:	005f 0000 	*unknown*
     d0a:	0f00      	beq d28 <_end+0x938>
     d0c:	1304      	ldrb r0,[r4,0x6]
     d0e:	0004      	ldrb r0,[r0]
     d10:	1500      	beq d3a <_end+0x94a>
     d12:	03bb 0000 	sub r0,r0,7
     d16:	0448 3904 	blteu 72151e <_PROG_SIZE_FOR_CORE_+0x62151e>
     d1a:	4502      	movts status,r2
     d1c:	0005      	ldrb r0,[r0],r0
     d1e:	1600      	beq d4a <_end+0x95a>
     d20:	032c 0000 	ldrh r0,[r0,+0x6]
     d24:	3b04      	ldrb r1,[r6,0x6]
     d26:	5f02 0000 	*unknown*
     d2a:	0000      	beq d2a <_end+0x93a>
     d2c:	b216      	lsl r5,r4,0x10
     d2e:	0001      	ldrb r0,[r0,r0]
     d30:	0400      	beq d38 <_end+0x948>
     d32:	0240      	blteu d36 <_end+0x946>
     d34:	062c 0000 	ldrh r0,[r1,+0x4]
     d38:	1604      	ldrb r0,[r5,0x4]
     d3a:	0248 0000 	blteu d3e <_end+0x94e>
     d3e:	4004      	ldrb r2,[r0]
     d40:	2c02      	moveq r1,r3
     d42:	0006      	lsr r0,r0,0x0
     d44:	0800      	beq d54 <_end+0x964>
     d46:	0d16      	lsl r0,r3,0x8
     d48:	0002      	moveq r0,r0
     d4a:	0400      	beq d52 <_end+0x962>
     d4c:	0240      	blteu d50 <_end+0x960>
     d4e:	062c 0000 	ldrh r0,[r1,+0x4]
     d52:	160c 038f 	ldrb r0,[r5],-0x47c
     d56:	0000      	beq d56 <_end+0x966>
     d58:	4204      	ldrb r2,[r0,0x4]
     d5a:	5f02 0000 	*unknown*
     d5e:	1000      	beq d7e <_end+0x98e>
     d60:	9916      	lsl r4,r6,0x8
     d62:	0000      	beq d62 <_end+0x972>
     d64:	0400      	beq d6c <_end+0x97c>
     d66:	0243      	mov r0,0x12
     d68:	080e      	asr r0,r2,0x0
     d6a:	0000      	beq d6a <_end+0x97a>
     d6c:	1614      	strb r0,[r5,0x4]
     d6e:	0488 0000 	blt d76 <_end+0x986>
     d72:	4504      	ldrb r2,[r1,0x2]
     d74:	5f02 0000 	*unknown*
     d78:	3000      	beq dd8 <_end+0x9e8>
     d7a:	9916      	lsl r4,r6,0x8
     d7c:	0003      	mov r0,0x0
     d7e:	0400      	beq d86 <_end+0x996>
     d80:	0246      	lsr r0,r0,0x12
     d82:	0576      	lsl r0,r1,0xb
     d84:	0000      	beq d84 <_end+0x994>
     d86:	1634      	strh r0,[r5,0x4]
     d88:	02e9 0000 	ldrd r0,[r0,+r5]
     d8c:	4804      	ldrb r2,[r2]
     d8e:	5f02 0000 	*unknown*
     d92:	3800      	beq e02 <_end+0xa12>
     d94:	a916      	lsl r5,r2,0x8
     d96:	0003      	mov r0,0x0
     d98:	0400      	beq da0 <_end+0x9b0>
     d9a:	024a      	lsr r0,r0,r4
     d9c:	0829 0000 	ldrh r0,[r2,+r0]
     da0:	163c 029a 	strh r0,[r5],+0x4d4
     da4:	0000      	beq da4 <_end+0x9b4>
     da6:	4d04      	ldrb r2,[r3,0x2]
     da8:	6002      	moveq r3,r0
     daa:	0001      	ldrb r0,[r0,r0]
     dac:	4000      	beq e2c <_end+0xa3c>
     dae:	3216      	lsl r1,r4,0x10
     db0:	0002      	moveq r0,r0
     db2:	0400      	beq dba <_end+0x9ca>
     db4:	024e      	asr r0,r0,0x12
     db6:	005f 0000 	*unknown*
     dba:	1644      	ldr r0,[r5,0x4]
     dbc:	0520      	bgtu dc6 <_end+0x9d6>
     dbe:	0000      	beq dbe <_end+0x9ce>
     dc0:	4f04      	ldrb r2,[r3,0x6]
     dc2:	6002      	moveq r3,r0
     dc4:	0001      	ldrb r0,[r0,r0]
     dc6:	4800      	beq e56 <_end+0xa66>
     dc8:	fb16      	lsl r7,r6,0x18
     dca:	0002      	moveq r0,r0
     dcc:	0400      	beq dd4 <_end+0x9e4>
     dce:	0250      	bltu dd2 <_end+0x9e2>
     dd0:	082f 0000 	*unknown*
     dd4:	164c 0250 	ldr r0,[r5],+0x284
     dd8:	0000      	beq dd8 <_end+0x9e8>
     dda:	5304      	ldrb r2,[r4,0x6]
     ddc:	5f02 0000 	*unknown*
     de0:	5000      	beq e80 <_end+0xa90>
     de2:	c216      	lsl r6,r0,0x10
     de4:	0001      	ldrb r0,[r0,r0]
     de6:	0400      	beq dee <_end+0x9fe>
     de8:	0254      	str r0,[r0,0x4]
     dea:	0545      	ldr r0,[r1],r2
     dec:	0000      	beq dec <_end+0x9fc>
     dee:	1654      	str r0,[r5,0x4]
     df0:	0325      	ldrh r0,[r0],r6
     df2:	0000      	beq df2 <_end+0xa02>
     df4:	7704      	ldrb r3,[r5,0x6]
     df6:	ec02      	moveq r7,r3
     df8:	0007      	fadd r0,r0,r0
     dfa:	5800      	beq eaa <_end+0xaba>
     dfc:	e117      	fsub r7,r0,r2
     dfe:	0002      	moveq r0,r0
     e00:	0400      	beq e08 <_end+0xa18>
     e02:	027b 027d 	*unknown*
     e06:	0000      	beq e06 <_end+0xa16>
     e08:	0148 7817 	blteu f03c0a <_PROG_SIZE_FOR_CORE_+0xe03c0a>
     e0c:	0002      	moveq r0,r0
     e0e:	0400      	beq e16 <_end+0xa26>
     e10:	027c 023f 	strd r0,[r0],+0x1fc
     e14:	0000      	beq e14 <_end+0xa24>
     e16:	0150      	bltu e18 <_end+0xa28>
     e18:	d417      	fsub r6,r5,r0
     e1a:	0004      	ldrb r0,[r0]
     e1c:	0400      	beq e24 <_end+0xa34>
     e1e:	0280      	blt e22 <_end+0xa32>
     e20:	0840      	blteu e30 <_end+0xa40>
     e22:	0000      	beq e22 <_end+0xa32>
     e24:	02e0      	b e28 <_end+0xa38>
     e26:	9b17      	fsub r4,r6,r6
     e28:	0001      	ldrb r0,[r0,r0]
     e2a:	0400      	beq e32 <_end+0xa42>
     e2c:	0285      	ldrb r0,[r0],r5
     e2e:	05f1      	strd r0,[r1,r3]
     e30:	0000      	beq e30 <_end+0xa40>
     e32:	02e8 8017 	b ff003c36 <_exit+0x7100365e>
     e36:	0001      	ldrb r0,[r0,r0]
     e38:	0400      	beq e40 <_end+0xa50>
     e3a:	0286      	lsr r0,r0,0x14
     e3c:	084c 0000 	ldr r0,[r2,+0x0]
     e40:	02f8 0f00 	bl 1e0e44 <_PROG_SIZE_FOR_CORE_+0xe0e44>
     e44:	4b04      	ldrb r2,[r2,0x6]
     e46:	0005      	ldrb r0,[r0],r0
     e48:	0200      	beq e4c <_end+0xa5c>
     e4a:	0801      	ldrb r0,[r2,r0]
     e4c:	0320      	bgtu e52 <_end+0xa62>
     e4e:	0000      	beq e4e <_end+0xa5e>
     e50:	040f 03ef 	*unknown*
     e54:	0000      	beq e54 <_end+0xa64>
     e56:	5f13      	add r2,r7,-2
     e58:	0000      	beq e58 <_end+0xa68>
     e5a:	7600      	beq f46 <_end+0xb56>
     e5c:	0005      	ldrb r0,[r0],r0
     e5e:	1400      	beq e86 <_end+0xa96>
     e60:	040d 0000 	ldrb r0,[r1],+r0
     e64:	0014      	strb r0,[r0]
     e66:	0001      	ldrb r0,[r0,r0]
     e68:	1400      	beq e90 <_end+0xaa0>
     e6a:	0576      	lsl r0,r1,0xb
     e6c:	0000      	beq e6c <_end+0xa7c>
     e6e:	5f14      	strb r2,[r7,0x6]
     e70:	0000      	beq e70 <_end+0xa80>
     e72:	0000      	beq e72 <_end+0xa82>
     e74:	040f 057c 	*unknown*
     e78:	0000      	beq e78 <_end+0xa88>
     e7a:	4b18 0005 	bne 1910 <_HALF_BANK_SIZE_+0x910>
     e7e:	0f00      	beq e9c <_end+0xaac>
     e80:	5804      	ldrb r2,[r6]
     e82:	0005      	ldrb r0,[r0],r0
     e84:	1300      	beq eaa <_end+0xaba>
     e86:	007c 0000 	strd r0,[r0]
     e8a:	05a5      	ldrh r0,[r1],r3
     e8c:	0000      	beq e8c <_end+0xa9c>
     e8e:	0d14      	strb r0,[r3,0x2]
     e90:	0004      	ldrb r0,[r0]
     e92:	1400      	beq eba <_end+0xaca>
     e94:	0100      	beq e96 <_end+0xaa6>
     e96:	0000      	beq e96 <_end+0xaa6>
     e98:	7c14      	strb r3,[r7]
     e9a:	0000      	beq e9a <_end+0xaaa>
     e9c:	1400      	beq ec4 <_end+0xad4>
     e9e:	005f 0000 	*unknown*
     ea2:	0f00      	beq ec0 <_end+0xad0>
     ea4:	8704      	ldrb r4,[r1,0x6]
     ea6:	0005      	ldrb r0,[r0],r0
     ea8:	1300      	beq ece <_end+0xade>
     eaa:	005f 0000 	*unknown*
     eae:	05bf 0000 	*unknown*
     eb2:	0d14      	strb r0,[r3,0x2]
     eb4:	0004      	ldrb r0,[r0]
     eb6:	1400      	beq ede <_end+0xaee>
     eb8:	0100      	beq eba <_end+0xaca>
     eba:	0000      	beq eba <_end+0xaca>
     ebc:	0f00      	beq eda <_end+0xaea>
     ebe:	ab04      	ldrb r5,[r2,0x6]
     ec0:	0005      	ldrb r0,[r0],r0
     ec2:	0800      	beq ed2 <_end+0xae2>
     ec4:	0043      	mov r0,0x2
     ec6:	0000      	beq ec6 <_end+0xad6>
     ec8:	05d5      	str r0,[r1],r3
     eca:	0000      	beq eca <_end+0xada>
     ecc:	c209 0000 	ldrb r6,[r0,+r4]
     ed0:	0200      	beq ed4 <_end+0xae4>
     ed2:	0800      	beq ee2 <_end+0xaf2>
     ed4:	0043      	mov r0,0x2
     ed6:	0000      	beq ed6 <_end+0xae6>
     ed8:	05e5      	ldrd r0,[r1],r3
     eda:	0000      	beq eda <_end+0xaea>
     edc:	c209 0000 	ldrb r6,[r0,+r4]
     ee0:	0000      	beq ee0 <_end+0xaf0>
     ee2:	0500      	beq eec <_end+0xafc>
     ee4:	0354      	str r0,[r0,0x6]
     ee6:	0000      	beq ee6 <_end+0xaf6>
     ee8:	1d04      	ldrb r0,[r7,0x2]
     eea:	c501      	ldrb r6,[r1,r2]
     eec:	0002      	moveq r0,r0
     eee:	1900      	beq f20 <_end+0xb30>
     ef0:	04bb 0000 	sub r0,r1,1
     ef4:	0410      	bne efc <_end+0xb0c>
     ef6:	0121      	ldrh r0,[r0,r2]
     ef8:	0626      	lsr r0,r1,0x11
     efa:	0000      	beq efa <_end+0xb0a>
     efc:	7c16      	lsl r3,r7,0x0
     efe:	0003      	mov r0,0x0
     f00:	0400      	beq f08 <_end+0xb18>
     f02:	0123      	mov r0,0x9
     f04:	0626      	lsr r0,r1,0x11
     f06:	0000      	beq f06 <_end+0xb16>
     f08:	1600      	beq f34 <_end+0xb44>
     f0a:	025e 0000 	*unknown*
     f0e:	2404      	ldrb r1,[r1]
     f10:	5f01      	ldrb r2,[r7,r6]
     f12:	0000      	beq f12 <_end+0xb22>
     f14:	0400      	beq f1c <_end+0xb2c>
     f16:	4e16      	lsl r2,r3,0x10
     f18:	0003      	mov r0,0x0
     f1a:	0400      	beq f22 <_end+0xb32>
     f1c:	0125      	ldrh r0,[r0],r2
     f1e:	062c 0000 	ldrh r0,[r1,+0x4]
     f22:	0008 040f 	beq 82d22 <_HEAP_SIZE_FOR_CORE_+0x2d22>
     f26:	05f1      	strd r0,[r1,r3]
     f28:	0000      	beq f28 <_end+0xb38>
     f2a:	040f 05e5 	*unknown*
     f2e:	0000      	beq f2e <_end+0xb3e>
     f30:	9119 0000 	strb r4,[r4,+r2]
     f34:	1000      	beq f54 <_end+0xb64>
     f36:	3d04      	ldrb r1,[r7,0x2]
     f38:	6701      	ldrb r3,[r1,r6]
     f3a:	0006      	lsr r0,r0,0x0
     f3c:	1600      	beq f68 <_end+0xb78>
     f3e:	03c2      	mbkpt
     f40:	0000      	beq f40 <_end+0xb50>
     f42:	3e04      	ldrb r1,[r7,0x4]
     f44:	6701      	ldrb r3,[r1,r6]
     f46:	0006      	lsr r0,r0,0x0
     f48:	0000      	beq f48 <_end+0xb58>
     f4a:	fb16      	lsl r7,r6,0x18
     f4c:	0003      	mov r0,0x0
     f4e:	0400      	beq f56 <_end+0xb66>
     f50:	013f 0667 	*unknown*
     f54:	0000      	beq f54 <_end+0xb64>
     f56:	1606      	lsr r0,r5,0x10
     f58:	0417      	fsub r0,r1,r0
     f5a:	0000      	beq f5a <_end+0xb6a>
     f5c:	4004      	ldrb r2,[r0]
     f5e:	5101      	ldrb r2,[r4,r2]
     f60:	0000      	beq f60 <_end+0xb70>
     f62:	0c00      	beq f7a <_end+0xb8a>
     f64:	0800      	beq f74 <_end+0xb84>
     f66:	0051      	str r0,[r0,r0]
     f68:	0000      	beq f68 <_end+0xb78>
     f6a:	0677      	fabs rd,rn
     f6c:	0000      	beq f6c <_end+0xb7c>
     f6e:	c209 0000 	ldrb r6,[r0,+r4]
     f72:	0200      	beq f76 <_end+0xb86>
     f74:	1a00      	beq fa8 <_end+0xbb8>
     f76:	04e0      	b f7e <_end+0xb8e>
     f78:	0258 0778 	bltu eff7c <_HEAP_SIZE_FOR_CORE_+0x6ff7c>
     f7c:	0000      	beq f7c <_end+0xb8c>
     f7e:	9f16      	lsl r4,r7,0x18
     f80:	0004      	ldrb r0,[r0]
     f82:	0400      	beq f8a <_end+0xb9a>
     f84:	025a      	and r0,r0,r4
     f86:	0027      	fmul r0,r0,r0
     f88:	0000      	beq f88 <_end+0xb98>
     f8a:	1600      	beq fb6 <_end+0xbc6>
     f8c:	0401      	ldrb r0,[r1,r0]
     f8e:	0000      	beq f8e <_end+0xb9e>
     f90:	5b04      	ldrb r2,[r6,0x6]
     f92:	4502      	movts status,r2
     f94:	0005      	ldrb r0,[r0],r0
     f96:	0400      	beq f9e <_end+0xbae>
     f98:	8d16      	lsl r4,r3,0x8
     f9a:	0002      	moveq r0,r0
     f9c:	0400      	beq fa4 <_end+0xbb4>
     f9e:	025c 0778 	str r0,[r8],-0x3c4
     fa2:	0000      	beq fa2 <_end+0xbb2>
     fa4:	1608 04f7 	beq 9fdd0 <_HEAP_SIZE_FOR_CORE_+0x1fdd0>
     fa8:	0000      	beq fa8 <_end+0xbb8>
     faa:	5d04      	ldrb r2,[r7,0x2]
     fac:	7602 0001 	*unknown*
     fb0:	2800      	beq 1000 <_HALF_BANK_SIZE_>
     fb2:	1d16      	lsl r0,r7,0x8
     fb4:	0002      	moveq r0,r0
     fb6:	0400      	beq fbe <_end+0xbce>
     fb8:	025e 005f 	*unknown*
     fbc:	0000      	beq fbc <_end+0xbcc>
     fbe:	1650      	bltu fea <_end+0xbfa>
     fc0:	0377      	fabs rd,rn
     fc2:	0000      	beq fc2 <_end+0xbd2>
     fc4:	5f04      	ldrb r2,[r7,0x6]
     fc6:	5802      	moveq r2,r6
     fc8:	0000      	beq fc8 <_end+0xbd8>
     fca:	5800      	beq 107a <_HALF_BANK_SIZE_+0x7a>
     fcc:	0d16      	lsl r0,r3,0x8
     fce:	0005      	ldrb r0,[r0],r0
     fd0:	0400      	beq fd8 <_end+0xbe8>
     fd2:	0260      	bgt fd6 <_end+0xbe6>
     fd4:	0632 0000 	*unknown*
     fd8:	1660      	bgt 1004 <_HALF_BANK_SIZE_+0x4>
     fda:	0382 0000 	*unknown*
     fde:	6104      	ldrb r3,[r0,0x2]
     fe0:	ea02 0000 	*unknown*
     fe4:	7000      	beq 10c4 <_HALF_BANK_SIZE_+0xc4>
     fe6:	1216      	lsl r0,r4,0x10
     fe8:	0005      	ldrb r0,[r0],r0
     fea:	0400      	beq ff2 <_end+0xc02>
     fec:	0262 00ea 	*unknown*
     ff0:	0000      	beq ff0 <_end+0xc00>
     ff2:	1678 0145 	bgte 29a1e <__stack_start_+0x21a2e>
     ff6:	0000      	beq ff6 <_end+0xc06>
     ff8:	6304      	ldrb r3,[r0,0x6]
     ffa:	ea02 0000 	*unknown*
     ffe:	8000      	beq efe <_end+0xb0e>
    1000:	ca16      	lsl r6,r2,0x10
    1002:	0004      	ldrb r0,[r0]
    1004:	0400      	beq 100c <_HALF_BANK_SIZE_+0xc>
    1006:	0264      	ldrd r0,[r0,0x4]
    1008:	0788 0000 	blt 1016 <_HALF_BANK_SIZE_+0x16>
    100c:	1688 0281 	blt 51238 <__stack_start_+0x49248>
    1010:	0000      	beq 1010 <_HALF_BANK_SIZE_+0x10>
    1012:	6504      	ldrb r3,[r1,0x2]
    1014:	9802      	moveq r4,r6
    1016:	0007      	fadd r0,r0,r0
    1018:	9000      	beq f38 <_end+0xb48>
    101a:	2416      	lsl r1,r1,0x0
    101c:	0004      	ldrb r0,[r0]
    101e:	0400      	beq 1026 <_HALF_BANK_SIZE_+0x26>
    1020:	0266      	lsr r0,r0,0x13
    1022:	005f 0000 	*unknown*
    1026:	16a8 01e3 	bbeq 3d652 <__stack_start_+0x35662>
    102a:	0000      	beq 102a <_HALF_BANK_SIZE_+0x2a>
    102c:	6704      	ldrb r3,[r1,0x6]
    102e:	ea02 0000 	*unknown*
    1032:	b000      	beq f92 <_end+0xba2>
    1034:	3616      	lsl r1,r5,0x10
    1036:	0001      	ldrb r0,[r0,r0]
    1038:	0400      	beq 1040 <_HALF_BANK_SIZE_+0x40>
    103a:	0268 00ea 	bgt 1e43e <__stack_start_+0x1644e>
    103e:	0000      	beq 103e <_HALF_BANK_SIZE_+0x3e>
    1040:	16b8 01d2 	bbne 3b46c <__stack_start_+0x3347c>
    1044:	0000      	beq 1044 <_HALF_BANK_SIZE_+0x44>
    1046:	6904      	ldrb r3,[r2,0x2]
    1048:	ea02 0000 	*unknown*
    104c:	c000      	beq fcc <_end+0xbdc>
    104e:	f616      	lsl r7,r5,0x10
    1050:	0000      	beq 1050 <_HALF_BANK_SIZE_+0x50>
    1052:	0400      	beq 105a <_HALF_BANK_SIZE_+0x5a>
    1054:	026a      	asr r0,r0,r4
    1056:	00ea      	asr r0,r0,r1
    1058:	0000      	beq 1058 <_HALF_BANK_SIZE_+0x58>
    105a:	16c8 0105 	bblt 21a86 <__stack_start_+0x19a96>
    105e:	0000      	beq 105e <_HALF_BANK_SIZE_+0x5e>
    1060:	6b04      	ldrb r3,[r2,0x6]
    1062:	ea02 0000 	*unknown*
    1066:	d000      	beq 1006 <_HALF_BANK_SIZE_+0x6>
    1068:	2a16      	lsl r1,r2,0x10
    106a:	0003      	mov r0,0x0
    106c:	0400      	beq 1074 <_HALF_BANK_SIZE_+0x74>
    106e:	026c 005f 	ldrd r0,[r0,+0x2fc]
    1072:	0000      	beq 1072 <_HALF_BANK_SIZE_+0x72>
    1074:	00d8 4b08 	bblte 962074 <_PROG_SIZE_FOR_CORE_+0x862074>
    1078:	0005      	ldrb r0,[r0],r0
    107a:	8800      	beq f8a <_end+0xb9a>
    107c:	0007      	fadd r0,r0,r0
    107e:	0900      	beq 1090 <_HALF_BANK_SIZE_+0x90>
    1080:	00c2      	movblt r0,r0
    1082:	0000      	beq 1082 <_HALF_BANK_SIZE_+0x82>
    1084:	0019 4b08 	*unknown*
    1088:	0005      	ldrb r0,[r0],r0
    108a:	9800      	beq fba <_end+0xbca>
    108c:	0007      	fadd r0,r0,r0
    108e:	0900      	beq 10a0 <_HALF_BANK_SIZE_+0xa0>
    1090:	00c2      	movblt r0,r0
    1092:	0000      	beq 1092 <_HALF_BANK_SIZE_+0x92>
    1094:	0007      	fadd r0,r0,r0
    1096:	4b08 0005 	beq 1b2c <_HALF_BANK_SIZE_+0xb2c>
    109a:	a800      	beq fea <_end+0xbfa>
    109c:	0007      	fadd r0,r0,r0
    109e:	0900      	beq 10b0 <_HALF_BANK_SIZE_+0xb0>
    10a0:	00c2      	movblt r0,r0
    10a2:	0000      	beq 10a2 <_HALF_BANK_SIZE_+0xa2>
    10a4:	0017      	fsub r0,r0,r0
    10a6:	f01a      	add r7,r4,r0
    10a8:	7104      	ldrb r3,[r4,0x2]
    10aa:	cc02      	moveq r6,r3
    10ac:	0007      	fadd r0,r0,r0
    10ae:	1600      	beq 10da <_HALF_BANK_SIZE_+0xda>
    10b0:	02d1      	str r0,[r0,r5]
    10b2:	0000      	beq 10b2 <_HALF_BANK_SIZE_+0xb2>
    10b4:	7404      	ldrb r3,[r5]
    10b6:	cc02      	moveq r6,r3
    10b8:	0007      	fadd r0,r0,r0
    10ba:	0000      	beq 10ba <_HALF_BANK_SIZE_+0xba>
    10bc:	c116      	lsl r6,r0,0x8
    10be:	0004      	ldrb r0,[r0]
    10c0:	0400      	beq 10c8 <_HALF_BANK_SIZE_+0xc8>
    10c2:	0275      	strd r0,[r0],r4
    10c4:	07dc 0000 	str r0,[r1,+0x7]
    10c8:	0078 bf08 	bgte ff7e20c8 <_exit+0x717e1af0>
    10cc:	0002      	moveq r0,r0
    10ce:	dc00      	beq 1086 <_HALF_BANK_SIZE_+0x86>
    10d0:	0007      	fadd r0,r0,r0
    10d2:	0900      	beq 10e4 <_HALF_BANK_SIZE_+0xe4>
    10d4:	00c2      	movblt r0,r0
    10d6:	0000      	beq 10d6 <_HALF_BANK_SIZE_+0xd6>
    10d8:	001d 2708 	*unknown*
    10dc:	0000      	beq 10dc <_HALF_BANK_SIZE_+0xdc>
    10de:	ec00      	beq 10b6 <_HALF_BANK_SIZE_+0xb6>
    10e0:	0007      	fadd r0,r0,r0
    10e2:	0900      	beq 10f4 <_HALF_BANK_SIZE_+0xf4>
    10e4:	00c2      	movblt r0,r0
    10e6:	0000      	beq 10e6 <_HALF_BANK_SIZE_+0xe6>
    10e8:	001d f01b 	*unknown*
    10ec:	5604      	ldrb r2,[r5,0x4]
    10ee:	0e02 0008 	*unknown*
    10f2:	1c00      	beq 112a <_HALF_BANK_SIZE_+0x12a>
    10f4:	03bb 0000 	sub r0,r0,7
    10f8:	6d04      	ldrb r3,[r3,0x2]
    10fa:	7702 0006 	*unknown*
    10fe:	1c00      	beq 1136 <_HALF_BANK_SIZE_+0x136>
    1100:	04e4      	ldrd r0,[r1,0x1]
    1102:	0000      	beq 1102 <_HALF_BANK_SIZE_+0x102>
    1104:	7604      	ldrb r3,[r5,0x4]
    1106:	a802      	moveq r5,r2
    1108:	0007      	fadd r0,r0,r0
    110a:	0000      	beq 110a <_HALF_BANK_SIZE_+0x10a>
    110c:	4b08 0005 	beq 1ba2 <_HALF_BANK_SIZE_+0xba2>
    1110:	1e00      	beq 114c <_HALF_BANK_SIZE_+0x14c>
    1112:	0008 0900 	beq 121112 <_PROG_SIZE_FOR_CORE_+0x21112>
    1116:	00c2      	movblt r0,r0
    1118:	0000      	beq 1118 <_HALF_BANK_SIZE_+0x118>
    111a:	0018 291d 	bne 524b1a <_PROG_SIZE_FOR_CORE_+0x424b1a>
    111e:	0008 1400 	beq 28111e <_PROG_SIZE_FOR_CORE_+0x18111e>
    1122:	040d 0000 	ldrb r0,[r1],+r0
    1126:	0f00      	beq 1144 <_HALF_BANK_SIZE_+0x144>
    1128:	1e04      	ldrb r0,[r7,0x4]
    112a:	0008 0f00 	beq 1e112a <_PROG_SIZE_FOR_CORE_+0xe112a>
    112e:	6004      	ldrb r3,[r0]
    1130:	0001      	ldrb r0,[r0,r0]
    1132:	1d00      	beq 116c <_HALF_BANK_SIZE_+0x16c>
    1134:	0840      	blteu 1144 <_HALF_BANK_SIZE_+0x144>
    1136:	0000      	beq 1136 <_HALF_BANK_SIZE_+0x136>
    1138:	5f14      	strb r2,[r7,0x6]
    113a:	0000      	beq 113a <_HALF_BANK_SIZE_+0x13a>
    113c:	0000      	beq 113c <_HALF_BANK_SIZE_+0x13c>
    113e:	040f 0846 	*unknown*
    1142:	0000      	beq 1142 <_HALF_BANK_SIZE_+0x142>
    1144:	040f 0835 	*unknown*
    1148:	0000      	beq 1148 <_HALF_BANK_SIZE_+0x148>
    114a:	e508 0005 	beq 1d14 <_HALF_BANK_SIZE_+0xd14>
    114e:	5c00      	beq 1206 <_HALF_BANK_SIZE_+0x206>
    1150:	0008 0900 	beq 121150 <_PROG_SIZE_FOR_CORE_+0x21150>
    1154:	00c2      	movblt r0,r0
    1156:	0000      	beq 1156 <_HALF_BANK_SIZE_+0x156>
    1158:	0002      	moveq r0,r0
    115a:	2f1e 0005 	*unknown*
    115e:	0500      	beq 1168 <_HALF_BANK_SIZE_+0x168>
    1160:	1317      	fsub r0,r4,r6
    1162:	0004      	ldrb r0,[r0]
    1164:	0500      	beq 116e <_HALF_BANK_SIZE_+0x16e>
    1166:	9003      	mov r4,0x80
    1168:	0001      	ldrb r0,[r0,r0]
    116a:	1f8e      	asr r0,r7,0x1c
    116c:	047c 0000 	strd r0,[r1]
    1170:	fa04      	ldrb r7,[r6,0x4]
    1172:	0d02      	movts debugstatus,r0
    1174:	0004      	ldrb r0,[r0]
    1176:	0500      	beq 1180 <_HALF_BANK_SIZE_+0x180>
    1178:	8803      	mov r4,0x40
    117a:	0001      	ldrb r0,[r0,r0]
    117c:	1f8e      	asr r0,r7,0x1c
    117e:	0475      	strd r0,[r1],r0
    1180:	0000      	beq 1180 <_HALF_BANK_SIZE_+0x180>
    1182:	fb04      	ldrb r7,[r6,0x6]
    1184:	9102      	movts iab,r4
    1186:	0008 0500 	beq a1186 <_HEAP_SIZE_FOR_CORE_+0x21186>
    118a:	3c03      	mov r1,0xe0
    118c:	0000      	beq 118c <_HALF_BANK_SIZE_+0x18c>
    118e:	188e      	asr r0,r6,0x4
    1190:	040d 0000 	ldrb r0,[r1],+r0
    1194:	4700      	beq 1222 <_HALF_BANK_SIZE_+0x222>
    1196:	0009 0400 	ldrb r0,[r8,+r0]
    119a:	7400      	beq 1282 <_HALF_BANK_SIZE_+0x282>
    119c:	0003      	mov r0,0x0
    119e:	0400      	beq 11a6 <_HALF_BANK_SIZE_+0x1a6>
    11a0:	a401      	ldrb r5,[r1,r0]
    11a2:	0000      	beq 11a2 <_HALF_BANK_SIZE_+0x1a2>
    11a4:	0c00      	beq 11bc <_HALF_BANK_SIZE_+0x1bc>
    11a6:	058e      	asr r0,r1,0xc
    11a8:	0000      	beq 11a8 <_HALF_BANK_SIZE_+0x1a8>
    11aa:	0040      	blteu 11aa <_HALF_BANK_SIZE_+0x1aa>
    11ac:	8e00      	beq 10c8 <_HALF_BANK_SIZE_+0xc8>
    11ae:	0142      	jr r0
    11b0:	0000      	beq 11b0 <_HALF_BANK_SIZE_+0x1b0>
    11b2:	02a8 0000 	bbeq 11b6 <_HALF_BANK_SIZE_+0x1b6>
    11b6:	0402      	moveq r0,r1
    11b8:	1b07      	fadd r0,r6,r6
    11ba:	0001      	ldrb r0,[r0,r0]
    11bc:	0200      	beq 11c0 <_HALF_BANK_SIZE_+0x1c0>
    11be:	0704      	ldrb r0,[r1,0x6]
    11c0:	0120      	bgtu 11c2 <_HALF_BANK_SIZE_+0x1c2>
    11c2:	0000      	beq 11c2 <_HALF_BANK_SIZE_+0x1c2>
    11c4:	0402      	moveq r0,r1
    11c6:	6105      	ldrb r3,[r0],r2
    11c8:	0001      	ldrb r0,[r0,r0]
    11ca:	0200      	beq 11ce <_HALF_BANK_SIZE_+0x1ce>
    11cc:	0508 015c 	beq 2c9d6 <__stack_start_+0x249e6>
    11d0:	0000      	beq 11d0 <_HALF_BANK_SIZE_+0x1d0>
    11d2:	0802      	moveq r0,r2
    11d4:	e604      	ldrb r7,[r1,0x4]
    11d6:	0003      	mov r0,0x0
    11d8:	0200      	beq 11dc <_HALF_BANK_SIZE_+0x1dc>
    11da:	0601      	ldrb r0,[r1,r4]
    11dc:	0319 0000 	strb r0,[r0,+r6]
    11e0:	0102      	movts config,r0
    11e2:	1708 0003 	beq 1810 <_HALF_BANK_SIZE_+0x810>
    11e6:	0200      	beq 11ea <_HALF_BANK_SIZE_+0x1ea>
    11e8:	0502      	movts status,r0
    11ea:	0333      	sub r0,r0,-2
    11ec:	0000      	beq 11ec <_HALF_BANK_SIZE_+0x1ec>
    11ee:	0202 6507 	*unknown*
    11f2:	0002      	moveq r0,r0
    11f4:	0200      	beq 11f8 <_HALF_BANK_SIZE_+0x1f8>
    11f6:	0708 0116 	beq 23e04 <__stack_start_+0x1be14>
    11fa:	0000      	beq 11fa <_HALF_BANK_SIZE_+0x1fa>
    11fc:	0403      	mov r0,0x20
    11fe:	6905      	ldrb r3,[r2],r2
    1200:	746e      	asr r3,r5,0x3
    1202:	0400      	beq 120a <_HALF_BANK_SIZE_+0x20a>
    1204:	0305      	ldrb r0,[r0],r6
    1206:	0000      	beq 1206 <_HALF_BANK_SIZE_+0x206>
    1208:	0702 0067 	*unknown*
    120c:	0000      	beq 120c <_HALF_BANK_SIZE_+0x20c>
    120e:	f404      	ldrb r7,[r5]
    1210:	0002      	moveq r0,r0
    1212:	0300      	beq 1218 <_HALF_BANK_SIZE_+0x218>
    1214:	2f10      	bne 1272 <_HALF_BANK_SIZE_+0x272>
    1216:	0000      	beq 1216 <_HALF_BANK_SIZE_+0x216>
    1218:	0400      	beq 1220 <_HALF_BANK_SIZE_+0x220>
    121a:	03de 0000 	*unknown*
    121e:	2703      	mov r1,0x38
    1220:	002f 0000 	*unknown*
    1224:	a805      	ldrb r5,[r2],r0
    1226:	0002      	moveq r0,r0
    1228:	0400      	beq 1230 <_HALF_BANK_SIZE_+0x230>
    122a:	0165      	ldrd r0,[r0],r2
    122c:	0028 0000 	bgtu 122c <_HALF_BANK_SIZE_+0x22c>
    1230:	0406      	lsr r0,r1,0x0
    1232:	4a03      	mov r2,0x50
    1234:	00ba      	sub r0,r0,r1
    1236:	0000      	beq 1236 <_HALF_BANK_SIZE_+0x236>
    1238:	a207      	fadd r5,r0,r4
    123a:	0002      	moveq r0,r0
    123c:	0300      	beq 1242 <_HALF_BANK_SIZE_+0x242>
    123e:	8f4c 0000 	ldr r4,[r3,+0x6]
    1242:	0700      	beq 1250 <_HALF_BANK_SIZE_+0x250>
    1244:	0241      	ldr r0,[r0,r4]
    1246:	0000      	beq 1246 <_HALF_BANK_SIZE_+0x246>
    1248:	4d03      	mov r2,0x68
    124a:	00ba      	sub r0,r0,r1
    124c:	0000      	beq 124c <_HALF_BANK_SIZE_+0x24c>
    124e:	0800      	beq 125e <_HALF_BANK_SIZE_+0x25e>
    1250:	004b 0000 	*unknown*
    1254:	00ca      	lsr r0,r0,r1
    1256:	0000      	beq 1256 <_HALF_BANK_SIZE_+0x256>
    1258:	ca09 0000 	ldrb r6,[r2,+r4]
    125c:	0300      	beq 1262 <_HALF_BANK_SIZE_+0x262>
    125e:	0200      	beq 1262 <_HALF_BANK_SIZE_+0x262>
    1260:	0704      	ldrb r0,[r1,0x6]
    1262:	02c8 0000 	bblt 1266 <_HALF_BANK_SIZE_+0x266>
    1266:	080a      	eor r0,r2,r0
    1268:	4703      	mov r2,0x38
    126a:	00f2 0000 	*unknown*
    126e:	c80b 0003 	*unknown*
    1272:	0300      	beq 1278 <_HALF_BANK_SIZE_+0x278>
    1274:	6749 0000 	ldr r3,[r1,+r6]
    1278:	0000      	beq 1278 <_HALF_BANK_SIZE_+0x278>
    127a:	d00b 0003 	*unknown*
    127e:	0300      	beq 1284 <_HALF_BANK_SIZE_+0x284>
    1280:	9b4e      	asr r4,r6,0x1a
    1282:	0000      	beq 1282 <_HALF_BANK_SIZE_+0x282>
    1284:	0400      	beq 128c <_HALF_BANK_SIZE_+0x28c>
    1286:	0400      	beq 128e <_HALF_BANK_SIZE_+0x28e>
    1288:	035b 0000 	*unknown*
    128c:	4f03      	mov r2,0x78
    128e:	00d1      	str r0,[r0,r1]
    1290:	0000      	beq 1290 <_HALF_BANK_SIZE_+0x290>
    1292:	0404      	ldrb r0,[r1]
    1294:	0002      	moveq r0,r0
    1296:	0300      	beq 129c <_HALF_BANK_SIZE_+0x29c>
    1298:	6e53 0000 	*unknown*
    129c:	0c00      	beq 12b4 <_HALF_BANK_SIZE_+0x2b4>
    129e:	0404      	ldrb r0,[r1]
    12a0:	041c 0000 	strb r0,[r1]
    12a4:	1605      	ldrb r0,[r5],r4
    12a6:	0021      	ldrh r0,[r0,r0]
    12a8:	0000      	beq 12a8 <_HALF_BANK_SIZE_+0x2a8>
    12aa:	150d 0002 	*unknown*
    12ae:	2000      	beq 12ee <_HALF_BANK_SIZE_+0x2ee>
    12b0:	2d05      	ldrb r1,[r3],r2
    12b2:	0168 0000 	bgt 12b4 <_HALF_BANK_SIZE_+0x2b4>
    12b6:	7c0b 0003 	*unknown*
    12ba:	0500      	beq 12c4 <_HALF_BANK_SIZE_+0x2c4>
    12bc:	682f 0001 	*unknown*
    12c0:	0000      	beq 12c0 <_HALF_BANK_SIZE_+0x2c0>
    12c2:	5f0e      	asr r2,r7,0x18
    12c4:	006b 3005 	*unknown*
    12c8:	0067      	fix r0,r0
    12ca:	0000      	beq 12ca <_HALF_BANK_SIZE_+0x2ca>
    12cc:	0b04      	ldrb r0,[r2,0x6]
    12ce:	03b3      	sub r0,r0,-1
    12d0:	0000      	beq 12d0 <_HALF_BANK_SIZE_+0x2d0>
    12d2:	3005      	ldrb r1,[r4],r0
    12d4:	0067      	fix r0,r0
    12d6:	0000      	beq 12d6 <_HALF_BANK_SIZE_+0x2d6>
    12d8:	0b08 01fe 	beq 40eee <__stack_start_+0x38efe>
    12dc:	0000      	beq 12dc <_HALF_BANK_SIZE_+0x2dc>
    12de:	3005      	ldrb r1,[r4],r0
    12e0:	0067      	fix r0,r0
    12e2:	0000      	beq 12e2 <_HALF_BANK_SIZE_+0x2e2>
    12e4:	0b0c 04ac 	ldrb r0,[r10,+0x566]
    12e8:	0000      	beq 12e8 <_HALF_BANK_SIZE_+0x2e8>
    12ea:	3005      	ldrb r1,[r4],r0
    12ec:	0067      	fix r0,r0
    12ee:	0000      	beq 12ee <_HALF_BANK_SIZE_+0x2ee>
    12f0:	0e10      	bne 130c <_HALF_BANK_SIZE_+0x30c>
    12f2:	785f 0500 	*unknown*
    12f6:	6e31      	strh r3,[r3,r4]
    12f8:	0001      	ldrb r0,[r0,r0]
    12fa:	1800      	beq 132a <_HALF_BANK_SIZE_+0x32a>
    12fc:	0f00      	beq 131a <_HALF_BANK_SIZE_+0x31a>
    12fe:	1504      	ldrb r0,[r5,0x2]
    1300:	0001      	ldrb r0,[r0,r0]
    1302:	0800      	beq 1312 <_HALF_BANK_SIZE_+0x312>
    1304:	010a      	eor r0,r0,r2
    1306:	0000      	beq 1306 <_HALF_BANK_SIZE_+0x306>
    1308:	017e 0000 	*unknown*
    130c:	ca09 0000 	ldrb r6,[r2,+r4]
    1310:	0000      	beq 1310 <_HALF_BANK_SIZE_+0x310>
    1312:	0d00      	beq 132c <_HALF_BANK_SIZE_+0x32c>
    1314:	023c 0000 	strh r0,[r0,+0x4]
    1318:	0528 f735 	bgtu ffee7d22 <_exit+0x71ee774a>
    131c:	0001      	ldrb r0,[r0,r0]
    131e:	0b00      	beq 1334 <_HALF_BANK_SIZE_+0x334>
    1320:	0153 0000 	*unknown*
    1324:	3705      	ldrb r1,[r5],r6
    1326:	0067      	fix r0,r0
    1328:	0000      	beq 1328 <_HALF_BANK_SIZE_+0x328>
    132a:	0b00      	beq 1340 <_HALF_BANK_SIZE_+0x340>
    132c:	03f2 0000 	*unknown*
    1330:	3805      	ldrb r1,[r6],r0
    1332:	0067      	fix r0,r0
    1334:	0000      	beq 1334 <_HALF_BANK_SIZE_+0x334>
    1336:	0b04      	ldrb r0,[r2,0x6]
    1338:	0176      	lsl r0,r0,0xb
    133a:	0000      	beq 133a <_HALF_BANK_SIZE_+0x33a>
    133c:	3905      	ldrb r1,[r6],r2
    133e:	0067      	fix r0,r0
    1340:	0000      	beq 1340 <_HALF_BANK_SIZE_+0x340>
    1342:	0b08 0525 	beq a5d58 <_HEAP_SIZE_FOR_CORE_+0x25d58>
    1346:	0000      	beq 1346 <_HALF_BANK_SIZE_+0x346>
    1348:	3a05      	ldrb r1,[r6],r4
    134a:	0067      	fix r0,r0
    134c:	0000      	beq 134c <_HALF_BANK_SIZE_+0x34c>
    134e:	0b0c 02d8 	ldrb r0,[r2],+0x6c6
    1352:	0000      	beq 1352 <_HALF_BANK_SIZE_+0x352>
    1354:	3b05      	ldrb r1,[r6],r6
    1356:	0067      	fix r0,r0
    1358:	0000      	beq 1358 <_HALF_BANK_SIZE_+0x358>
    135a:	0b10      	bne 1370 <_HALF_BANK_SIZE_+0x370>
    135c:	02be 0000 	*unknown*
    1360:	3c05      	ldrb r1,[r7],r0
    1362:	0067      	fix r0,r0
    1364:	0000      	beq 1364 <_HALF_BANK_SIZE_+0x364>
    1366:	0b14      	strb r0,[r2,0x6]
    1368:	04b1      	strh r0,[r1,r1]
    136a:	0000      	beq 136a <_HALF_BANK_SIZE_+0x36a>
    136c:	3d05      	ldrb r1,[r7],r2
    136e:	0067      	fix r0,r0
    1370:	0000      	beq 1370 <_HALF_BANK_SIZE_+0x370>
    1372:	0b18 033d 	bne 68d88 <__stack_start_+0x60d98>
    1376:	0000      	beq 1376 <_HALF_BANK_SIZE_+0x376>
    1378:	3e05      	ldrb r1,[r7],r4
    137a:	0067      	fix r0,r0
    137c:	0000      	beq 137c <_HALF_BANK_SIZE_+0x37c>
    137e:	0b1c 04ec 	strb r0,[r10,+0x766]
    1382:	0000      	beq 1382 <_HALF_BANK_SIZE_+0x382>
    1384:	3f05      	ldrb r1,[r7],r6
    1386:	0067      	fix r0,r0
    1388:	0000      	beq 1388 <_HALF_BANK_SIZE_+0x388>
    138a:	0020      	bgtu 138a <_HALF_BANK_SIZE_+0x38a>
    138c:	8510      	bne 1296 <_HALF_BANK_SIZE_+0x296>
    138e:	0001      	ldrb r0,[r0,r0]
    1390:	0800      	beq 13a0 <_HALF_BANK_SIZE_+0x3a0>
    1392:	0501      	ldrb r0,[r1,r2]
    1394:	3748 0002 	blteu 1802 <_HALF_BANK_SIZE_+0x802>
    1398:	0b00      	beq 13ae <_HALF_BANK_SIZE_+0x3ae>
    139a:	01f1      	strd r0,[r0,r3]
    139c:	0000      	beq 139c <_HALF_BANK_SIZE_+0x39c>
    139e:	4905      	ldrb r2,[r2],r2
    13a0:	0237      	fmadd r0,r0,r4
    13a2:	0000      	beq 13a2 <_HALF_BANK_SIZE_+0x3a2>
    13a4:	0b00      	beq 13ba <_HALF_BANK_SIZE_+0x3ba>
    13a6:	007f 0000 	*unknown*
    13aa:	4a05      	ldrb r2,[r2],r4
    13ac:	0237      	fmadd r0,r0,r4
    13ae:	0000      	beq 13ae <_HALF_BANK_SIZE_+0x3ae>
    13b0:	1180      	blt 13d2 <_HALF_BANK_SIZE_+0x3d2>
    13b2:	040e      	asr r0,r1,0x0
    13b4:	0000      	beq 13b4 <_HALF_BANK_SIZE_+0x3b4>
    13b6:	4c05      	ldrb r2,[r3],r0
    13b8:	010a      	eor r0,r0,r2
    13ba:	0000      	beq 13ba <_HALF_BANK_SIZE_+0x3ba>
    13bc:	0100      	beq 13be <_HALF_BANK_SIZE_+0x3be>
    13be:	aa11      	strb r5,[r2,r4]
    13c0:	0001      	ldrb r0,[r0,r0]
    13c2:	0500      	beq 13cc <_HALF_BANK_SIZE_+0x3cc>
    13c4:	0a4f 0001 	*unknown*
    13c8:	0400      	beq 13d0 <_HALF_BANK_SIZE_+0x3d0>
    13ca:	0001      	ldrb r0,[r0,r0]
    13cc:	0808 0001 	beq 15dc <_HALF_BANK_SIZE_+0x5dc>
    13d0:	4700      	beq 145e <_HALF_BANK_SIZE_+0x45e>
    13d2:	0002      	moveq r0,r0
    13d4:	0900      	beq 13e6 <_HALF_BANK_SIZE_+0x3e6>
    13d6:	00ca      	lsr r0,r0,r1
    13d8:	0000      	beq 13d8 <_HALF_BANK_SIZE_+0x3d8>
    13da:	001f e110 	*unknown*
    13de:	0002      	moveq r0,r0
    13e0:	9000      	beq 1300 <_HALF_BANK_SIZE_+0x300>
    13e2:	0501      	ldrb r0,[r1,r2]
    13e4:	855b 0002 	*unknown*
    13e8:	0b00      	beq 13fe <_HALF_BANK_SIZE_+0x3fe>
    13ea:	037c 0000 	strd r0,[r0,+0x6]
    13ee:	5c05      	ldrb r2,[r7],r0
    13f0:	0285      	ldrb r0,[r0],r5
    13f2:	0000      	beq 13f2 <_HALF_BANK_SIZE_+0x3f2>
    13f4:	0b00      	beq 140a <_HALF_BANK_SIZE_+0x40a>
    13f6:	0394      	strb r0,[r0,0x7]
    13f8:	0000      	beq 13f8 <_HALF_BANK_SIZE_+0x3f8>
    13fa:	5d05      	ldrb r2,[r7],r2
    13fc:	0067      	fix r0,r0
    13fe:	0000      	beq 13fe <_HALF_BANK_SIZE_+0x3fe>
    1400:	0b04      	ldrb r0,[r2,0x6]
    1402:	01f9 0000 	strd r0,[r0,+r3]
    1406:	5f05      	ldrb r2,[r7],r6
    1408:	028b 0000 	*unknown*
    140c:	0b08 0185 	beq 31e22 <__stack_start_+0x29e32>
    1410:	0000      	beq 1410 <_HALF_BANK_SIZE_+0x410>
    1412:	6005      	ldrb r3,[r0],r0
    1414:	01f7      	fabs rd,rn
    1416:	0000      	beq 1416 <_HALF_BANK_SIZE_+0x416>
    1418:	0088 040f 	blt 83218 <_HEAP_SIZE_FOR_CORE_+0x3218>
    141c:	0247      	fmsub r0,r0,r4
    141e:	0000      	beq 141e <_HALF_BANK_SIZE_+0x41e>
    1420:	9b08 0002 	beq 1956 <_HALF_BANK_SIZE_+0x956>
    1424:	9b00      	beq 135a <_HALF_BANK_SIZE_+0x35a>
    1426:	0002      	moveq r0,r0
    1428:	0900      	beq 143a <_HALF_BANK_SIZE_+0x43a>
    142a:	00ca      	lsr r0,r0,r1
    142c:	0000      	beq 142c <_HALF_BANK_SIZE_+0x42c>
    142e:	001f 040f 	*unknown*
    1432:	02a1      	ldrh r0,[r0,r5]
    1434:	0000      	beq 1434 <_HALF_BANK_SIZE_+0x434>
    1436:	0d12      	movfs r0,debugstatus
    1438:	0347      	fmsub r0,r0,r6
    143a:	0000      	beq 143a <_HALF_BANK_SIZE_+0x43a>
    143c:	0508 c773 	beq ff8efa46 <_exit+0x718ef46e>
    1440:	0002      	moveq r0,r0
    1442:	0b00      	beq 1458 <_HALF_BANK_SIZE_+0x458>
    1444:	0170      	bgte 1446 <_HALF_BANK_SIZE_+0x446>
    1446:	0000      	beq 1446 <_HALF_BANK_SIZE_+0x446>
    1448:	7405      	ldrb r3,[r5],r0
    144a:	02c7      	fmsub r0,r0,r5
    144c:	0000      	beq 144c <_HALF_BANK_SIZE_+0x44c>
    144e:	0b00      	beq 1464 <_HALF_BANK_SIZE_+0x464>
    1450:	008b 0000 	*unknown*
    1454:	7505      	ldrb r3,[r5],r2
    1456:	0067      	fix r0,r0
    1458:	0000      	beq 1458 <_HALF_BANK_SIZE_+0x458>
    145a:	0004      	ldrb r0,[r0]
    145c:	040f 004b 	*unknown*
    1460:	0000      	beq 1460 <_HALF_BANK_SIZE_+0x460>
    1462:	660d 0003 	*unknown*
    1466:	7000      	beq 1546 <_HALF_BANK_SIZE_+0x546>
    1468:	b305      	ldrb r5,[r4],r6
    146a:	03f7      	fabs rd,rn
    146c:	0000      	beq 146c <_HALF_BANK_SIZE_+0x46c>
    146e:	5f0e      	asr r2,r7,0x18
    1470:	0070      	bgte 1470 <_HALF_BANK_SIZE_+0x470>
    1472:	b405      	ldrb r5,[r5],r0
    1474:	02c7      	fmsub r0,r0,r5
    1476:	0000      	beq 1476 <_HALF_BANK_SIZE_+0x476>
    1478:	0e00      	beq 1494 <_HALF_BANK_SIZE_+0x494>
    147a:	725f 0500 	*unknown*
    147e:	67b5      	strh r3,[r1],r7
    1480:	0000      	beq 1480 <_HALF_BANK_SIZE_+0x480>
    1482:	0400      	beq 148a <_HALF_BANK_SIZE_+0x48a>
    1484:	5f0e      	asr r2,r7,0x18
    1486:	0077      	fabs rd,rn
    1488:	b605      	ldrb r5,[r5],r4
    148a:	0067      	fix r0,r0
    148c:	0000      	beq 148c <_HALF_BANK_SIZE_+0x48c>
    148e:	0b08 01a3 	beq 35aa4 <__stack_start_+0x2dab4>
    1492:	0000      	beq 1492 <_HALF_BANK_SIZE_+0x492>
    1494:	b705      	ldrb r5,[r5],r6
    1496:	0052      	movltu r0,r0
    1498:	0000      	beq 1498 <_HALF_BANK_SIZE_+0x498>
    149a:	0b0c 0258 	ldrb r0,[r2],+0x2c6
    149e:	0000      	beq 149e <_HALF_BANK_SIZE_+0x49e>
    14a0:	b805      	ldrb r5,[r6],r0
    14a2:	0052      	movltu r0,r0
    14a4:	0000      	beq 14a4 <_HALF_BANK_SIZE_+0x4a4>
    14a6:	0e0e      	asr r0,r3,0x10
    14a8:	625f 0066 	*unknown*
    14ac:	b905      	ldrb r5,[r6],r2
    14ae:	02a2 0000 	*unknown*
    14b2:	0b10      	bne 14c8 <_HALF_BANK_SIZE_+0x4c8>
    14b4:	012d 0000 	ldrh r0,[r0],+r2
    14b8:	ba05      	ldrb r5,[r6],r4
    14ba:	0067      	fix r0,r0
    14bc:	0000      	beq 14bc <_HALF_BANK_SIZE_+0x4bc>
    14be:	0b18 0193 	bne 33ad4 <__stack_start_+0x2bae4>
    14c2:	0000      	beq 14c2 <_HALF_BANK_SIZE_+0x4c2>
    14c4:	c105      	ldrb r6,[r0],r2
    14c6:	0108 0000 	beq 14c8 <_HALF_BANK_SIZE_+0x4c8>
    14ca:	0b1c 022c 	strb r0,[r2],+0x166
    14ce:	0000      	beq 14ce <_HALF_BANK_SIZE_+0x4ce>
    14d0:	c305      	ldrb r6,[r0],r6
    14d2:	055a      	and r0,r1,r2
    14d4:	0000      	beq 14d4 <_HALF_BANK_SIZE_+0x4d4>
    14d6:	0b20      	bgtu 14ec <_HALF_BANK_SIZE_+0x4ec>
    14d8:	02b7      	fmadd r0,r0,r5
    14da:	0000      	beq 14da <_HALF_BANK_SIZE_+0x4da>
    14dc:	c505      	ldrb r6,[r1],r2
    14de:	0589 0000 	ldrb r0,[r1,+r3]
    14e2:	0b24      	ldrh r0,[r2,0x6]
    14e4:	03d8 0000 	bblte 14ea <_HALF_BANK_SIZE_+0x4ea>
    14e8:	c805      	ldrb r6,[r2],r0
    14ea:	05ad 0000 	ldrh r0,[r1],+r3
    14ee:	0b28 0506 	bgtu a2104 <_HEAP_SIZE_FOR_CORE_+0x22104>
    14f2:	0000      	beq 14f2 <_HALF_BANK_SIZE_+0x4f2>
    14f4:	c905      	ldrb r6,[r2],r2
    14f6:	05c7      	fmsub r0,r1,r3
    14f8:	0000      	beq 14f8 <_HALF_BANK_SIZE_+0x4f8>
    14fa:	0e2c 755f 	ldrh r24,[r43,-0x2fc]
    14fe:	0062      	movgt r0,r0
    1500:	cc05      	ldrb r6,[r3],r0
    1502:	02a2 0000 	*unknown*
    1506:	0e30      	bgteu 1522 <_HALF_BANK_SIZE_+0x522>
    1508:	755f 0070 	*unknown*
    150c:	cd05      	ldrb r6,[r3],r2
    150e:	02c7      	fmsub r0,r0,r5
    1510:	0000      	beq 1510 <_HALF_BANK_SIZE_+0x510>
    1512:	0e38 755f 	bgteu ead32e <_PROG_SIZE_FOR_CORE_+0xdad32e>
    1516:	0072      	movgte r0,r0
    1518:	ce05      	ldrb r6,[r3],r4
    151a:	0067      	fix r0,r0
    151c:	0000      	beq 151c <_HALF_BANK_SIZE_+0x51c>
    151e:	0b3c 016a 	strh r0,[r2,-0x356]
    1522:	0000      	beq 1522 <_HALF_BANK_SIZE_+0x522>
    1524:	d105      	ldrb r6,[r4],r2
    1526:	05cd 0000 	ldr r0,[r1],+r3
    152a:	0b40      	blteu 1540 <_HALF_BANK_SIZE_+0x540>
    152c:	04de 0000 	*unknown*
    1530:	d205      	ldrb r6,[r4],r4
    1532:	05dd 0000 	str r0,[r1],+r3
    1536:	0e43      	mov r0,0x72
    1538:	6c5f 0062 	*unknown*
    153c:	d505      	ldrb r6,[r5],r2
    153e:	02a2 0000 	*unknown*
    1542:	0b48 01b9 	blteu 38758 <__stack_start_+0x30768>
    1546:	0000      	beq 1546 <_HALF_BANK_SIZE_+0x546>
    1548:	d805      	ldrb r6,[r6],r0
    154a:	0067      	fix r0,r0
    154c:	0000      	beq 154c <_HALF_BANK_SIZE_+0x54c>
    154e:	0b50      	bltu 1564 <_HALF_BANK_SIZE_+0x564>
    1550:	01ca      	lsr r0,r0,r3
    1552:	0000      	beq 1552 <_HALF_BANK_SIZE_+0x552>
    1554:	d905      	ldrb r6,[r6],r2
    1556:	0079 0000 	strd r0,[r0,+r0]
    155a:	0b54      	str r0,[r2,0x6]
    155c:	0535      	strh r0,[r1],r2
    155e:	0000      	beq 155e <_HALF_BANK_SIZE_+0x55e>
    1560:	dc05      	ldrb r6,[r7],r0
    1562:	0415      	strb r0,[r1],r0
    1564:	0000      	beq 1564 <_HALF_BANK_SIZE_+0x564>
    1566:	0b58 05f4 	bltu bfd7c <_HEAP_SIZE_FOR_CORE_+0x3fd7c>
    156a:	0000      	beq 156a <_HALF_BANK_SIZE_+0x56a>
    156c:	e005      	ldrb r7,[r0],r0
    156e:	00fd 0000 	strd r0,[r0],+r1
    1572:	0b5c 036e 	str r0,[r2],-0x376
    1576:	0000      	beq 1576 <_HALF_BANK_SIZE_+0x576>
    1578:	e205      	ldrb r7,[r0],r4
    157a:	00f2 0000 	*unknown*
    157e:	0b60      	bgt 1594 <_HALF_BANK_SIZE_+0x594>
    1580:	02af 0000 	*unknown*
    1584:	e305      	ldrb r7,[r0],r6
    1586:	0067      	fix r0,r0
    1588:	0000      	beq 1588 <_HALF_BANK_SIZE_+0x588>
    158a:	0068 6713 	bgt ce3b8a <_PROG_SIZE_FOR_CORE_+0xbe3b8a>
    158e:	0000      	beq 158e <_HALF_BANK_SIZE_+0x58e>
    1590:	1500      	beq 15ba <_HALF_BANK_SIZE_+0x5ba>
    1592:	0004      	ldrb r0,[r0]
    1594:	1400      	beq 15bc <_HALF_BANK_SIZE_+0x5bc>
    1596:	0415      	strb r0,[r1],r0
    1598:	0000      	beq 1598 <_HALF_BANK_SIZE_+0x598>
    159a:	0814      	strb r0,[r2]
    159c:	0001      	ldrb r0,[r0,r0]
    159e:	1400      	beq 15c6 <_HALF_BANK_SIZE_+0x5c6>
    15a0:	054d 0000 	ldr r0,[r1],+r2
    15a4:	6714      	strb r3,[r1,0x6]
    15a6:	0000      	beq 15a6 <_HALF_BANK_SIZE_+0x5a6>
    15a8:	0000      	beq 15a8 <_HALF_BANK_SIZE_+0x5a8>
    15aa:	040f 041b 	*unknown*
    15ae:	0000      	beq 15ae <_HALF_BANK_SIZE_+0x5ae>
    15b0:	bb15      	strb r5,[r6],r6
    15b2:	0003      	mov r0,0x0
    15b4:	4800      	beq 1644 <_HALF_BANK_SIZE_+0x644>
    15b6:	0504      	ldrb r0,[r1,0x2]
    15b8:	0239 054d 	*unknown*
    15bc:	0000      	beq 15bc <_HALF_BANK_SIZE_+0x5bc>
    15be:	2c16      	lsl r1,r3,0x0
    15c0:	0003      	mov r0,0x0
    15c2:	0500      	beq 15cc <_HALF_BANK_SIZE_+0x5cc>
    15c4:	023b 0067 	sub r0,r0,828
    15c8:	0000      	beq 15c8 <_HALF_BANK_SIZE_+0x5c8>
    15ca:	1600      	beq 15f6 <_HALF_BANK_SIZE_+0x5f6>
    15cc:	01b2      	idle
    15ce:	0000      	beq 15ce <_HALF_BANK_SIZE_+0x5ce>
    15d0:	4005      	ldrb r2,[r0],r0
    15d2:	3402      	moveq r1,r5
    15d4:	0006      	lsr r0,r0,0x0
    15d6:	0400      	beq 15de <_HALF_BANK_SIZE_+0x5de>
    15d8:	4816      	lsl r2,r2,0x0
    15da:	0002      	moveq r0,r0
    15dc:	0500      	beq 15e6 <_HALF_BANK_SIZE_+0x5e6>
    15de:	0240      	blteu 15e2 <_HALF_BANK_SIZE_+0x5e2>
    15e0:	0634      	strh r0,[r1,0x4]
    15e2:	0000      	beq 15e2 <_HALF_BANK_SIZE_+0x5e2>
    15e4:	1608 020d 	beq 43010 <__stack_start_+0x3b020>
    15e8:	0000      	beq 15e8 <_HALF_BANK_SIZE_+0x5e8>
    15ea:	4005      	ldrb r2,[r0],r0
    15ec:	3402      	moveq r1,r5
    15ee:	0006      	lsr r0,r0,0x0
    15f0:	0c00      	beq 1608 <_HALF_BANK_SIZE_+0x608>
    15f2:	8f16      	lsl r4,r3,0x18
    15f4:	0003      	mov r0,0x0
    15f6:	0500      	beq 1600 <_HALF_BANK_SIZE_+0x600>
    15f8:	0242 0067 	*unknown*
    15fc:	0000      	beq 15fc <_HALF_BANK_SIZE_+0x5fc>
    15fe:	1610      	bne 162a <_HALF_BANK_SIZE_+0x62a>
    1600:	0099 0000 	strb r0,[r0,+r1]
    1604:	4305      	ldrb r2,[r0],r6
    1606:	1602 0008 	*unknown*
    160a:	1400      	beq 1632 <_HALF_BANK_SIZE_+0x632>
    160c:	8816      	lsl r4,r2,0x0
    160e:	0004      	ldrb r0,[r0]
    1610:	0500      	beq 161a <_HALF_BANK_SIZE_+0x61a>
    1612:	0245      	ldr r0,[r0],r4
    1614:	0067      	fix r0,r0
    1616:	0000      	beq 1616 <_HALF_BANK_SIZE_+0x616>
    1618:	1630      	bgteu 1644 <_HALF_BANK_SIZE_+0x644>
    161a:	0399 0000 	strb r0,[r0,+r7]
    161e:	4605      	ldrb r2,[r1],r4
    1620:	7e02 0005 	*unknown*
    1624:	3400      	beq 168c <_HALF_BANK_SIZE_+0x68c>
    1626:	e916      	lsl r7,r2,0x8
    1628:	0002      	moveq r0,r0
    162a:	0500      	beq 1634 <_HALF_BANK_SIZE_+0x634>
    162c:	0248 0067 	blteu e430 <__stack_start_+0x6440>
    1630:	0000      	beq 1630 <_HALF_BANK_SIZE_+0x630>
    1632:	1638 03a9 	bgteu 7685e <__stack_start_+0x6e86e>
    1636:	0000      	beq 1636 <_HALF_BANK_SIZE_+0x636>
    1638:	4a05      	ldrb r2,[r2],r4
    163a:	3102      	movts iab,r1
    163c:	0008 3c00 	beq 78163c <_PROG_SIZE_FOR_CORE_+0x68163c>
    1640:	9a16      	lsl r4,r6,0x10
    1642:	0002      	moveq r0,r0
    1644:	0500      	beq 164e <_HALF_BANK_SIZE_+0x64e>
    1646:	024d 0168 	*unknown*
    164a:	0000      	beq 164a <_HALF_BANK_SIZE_+0x64a>
    164c:	1640      	blteu 1678 <_HALF_BANK_SIZE_+0x678>
    164e:	0232 0000 	*unknown*
    1652:	4e05      	ldrb r2,[r3],r4
    1654:	6702 0000 	*unknown*
    1658:	4400      	beq 16e0 <_HALF_BANK_SIZE_+0x6e0>
    165a:	2016      	lsl r1,r0,0x0
    165c:	0005      	ldrb r0,[r0],r0
    165e:	0500      	beq 1668 <_HALF_BANK_SIZE_+0x668>
    1660:	024f 0168 	*unknown*
    1664:	0000      	beq 1664 <_HALF_BANK_SIZE_+0x664>
    1666:	1648 02fb 	blteu 60c92 <__stack_start_+0x58ca2>
    166a:	0000      	beq 166a <_HALF_BANK_SIZE_+0x66a>
    166c:	5005      	ldrb r2,[r4],r0
    166e:	3702 0008 	*unknown*
    1672:	4c00      	beq 170a <_HALF_BANK_SIZE_+0x70a>
    1674:	5016      	lsl r2,r4,0x0
    1676:	0002      	moveq r0,r0
    1678:	0500      	beq 1682 <_HALF_BANK_SIZE_+0x682>
    167a:	0253 0067 	*unknown*
    167e:	0000      	beq 167e <_HALF_BANK_SIZE_+0x67e>
    1680:	1650      	bltu 16ac <_HALF_BANK_SIZE_+0x6ac>
    1682:	01c2      	bkpt
    1684:	0000      	beq 1684 <_HALF_BANK_SIZE_+0x684>
    1686:	5405      	ldrb r2,[r5],r0
    1688:	4d02      	movts debugstatus,r2
    168a:	0005      	ldrb r0,[r0],r0
    168c:	5400      	beq 1734 <_HALF_BANK_SIZE_+0x734>
    168e:	2516      	lsl r1,r1,0x8
    1690:	0003      	mov r0,0x0
    1692:	0500      	beq 169c <_HALF_BANK_SIZE_+0x69c>
    1694:	0277      	fabs rd,rn
    1696:	07f4      	strd r0,[r1,0x7]
    1698:	0000      	beq 1698 <_HALF_BANK_SIZE_+0x698>
    169a:	1758 02e1 	bltu 5d8c8 <__stack_start_+0x558d8>
    169e:	0000      	beq 169e <_HALF_BANK_SIZE_+0x69e>
    16a0:	7b05      	ldrb r3,[r6],r6
    16a2:	8502      	movts status,r4
    16a4:	0002      	moveq r0,r0
    16a6:	4800      	beq 1736 <_HALF_BANK_SIZE_+0x736>
    16a8:	1701      	ldrb r0,[r5,r6]
    16aa:	0278 0000 	bgte 16ae <_HALF_BANK_SIZE_+0x6ae>
    16ae:	7c05      	ldrb r3,[r7],r0
    16b0:	4702 0002 	*unknown*
    16b4:	5000      	beq 1754 <_HALF_BANK_SIZE_+0x754>
    16b6:	1701      	ldrb r0,[r5,r6]
    16b8:	04d4      	str r0,[r1,0x1]
    16ba:	0000      	beq 16ba <_HALF_BANK_SIZE_+0x6ba>
    16bc:	8005      	ldrb r4,[r0],r0
    16be:	4802      	moveq r2,r2
    16c0:	0008 e000 	beq ffc016c0 <_exit+0x71c010e8>
    16c4:	1702 019b 	*unknown*
    16c8:	0000      	beq 16c8 <_HALF_BANK_SIZE_+0x6c8>
    16ca:	8505      	ldrb r4,[r1],r2
    16cc:	f902      	movts ls,r7
    16ce:	0005      	ldrb r0,[r0],r0
    16d0:	e800      	beq 16a0 <_HALF_BANK_SIZE_+0x6a0>
    16d2:	1702 0180 	*unknown*
    16d6:	0000      	beq 16d6 <_HALF_BANK_SIZE_+0x6d6>
    16d8:	8605      	ldrb r4,[r1],r4
    16da:	5402      	moveq r2,r5
    16dc:	0008 f800 	beq fff016dc <_exit+0x71f01104>
    16e0:	0002      	moveq r0,r0
    16e2:	040f 0553 	*unknown*
    16e6:	0000      	beq 16e6 <_HALF_BANK_SIZE_+0x6e6>
    16e8:	0102      	movts config,r0
    16ea:	2008 0003 	beq 1d2a <_HALF_BANK_SIZE_+0xd2a>
    16ee:	0f00      	beq 170c <_HALF_BANK_SIZE_+0x70c>
    16f0:	f704      	ldrb r7,[r5,0x6]
    16f2:	0003      	mov r0,0x0
    16f4:	1300      	beq 171a <_HALF_BANK_SIZE_+0x71a>
    16f6:	0067      	fix r0,r0
    16f8:	0000      	beq 16f8 <_HALF_BANK_SIZE_+0x6f8>
    16fa:	057e 0000 	*unknown*
    16fe:	1514      	strb r0,[r5,0x2]
    1700:	0004      	ldrb r0,[r0]
    1702:	1400      	beq 172a <_HALF_BANK_SIZE_+0x72a>
    1704:	0108 0000 	beq 1706 <_HALF_BANK_SIZE_+0x706>
    1708:	7e14      	strb r3,[r7,0x4]
    170a:	0005      	ldrb r0,[r0],r0
    170c:	1400      	beq 1734 <_HALF_BANK_SIZE_+0x734>
    170e:	0067      	fix r0,r0
    1710:	0000      	beq 1710 <_HALF_BANK_SIZE_+0x710>
    1712:	0f00      	beq 1730 <_HALF_BANK_SIZE_+0x730>
    1714:	8404      	ldrb r4,[r1]
    1716:	0005      	ldrb r0,[r0],r0
    1718:	1800      	beq 1748 <_HALF_BANK_SIZE_+0x748>
    171a:	0553 0000 	*unknown*
    171e:	040f 0560 	*unknown*
    1722:	0000      	beq 1722 <_HALF_BANK_SIZE_+0x722>
    1724:	8413      	add r4,r1,0
    1726:	0000      	beq 1726 <_HALF_BANK_SIZE_+0x726>
    1728:	ad00      	beq 1682 <_HALF_BANK_SIZE_+0x682>
    172a:	0005      	ldrb r0,[r0],r0
    172c:	1400      	beq 1754 <_HALF_BANK_SIZE_+0x754>
    172e:	0415      	strb r0,[r1],r0
    1730:	0000      	beq 1730 <_HALF_BANK_SIZE_+0x730>
    1732:	0814      	strb r0,[r2]
    1734:	0001      	ldrb r0,[r0,r0]
    1736:	1400      	beq 175e <_HALF_BANK_SIZE_+0x75e>
    1738:	0084      	ldrb r0,[r0,0x1]
    173a:	0000      	beq 173a <_HALF_BANK_SIZE_+0x73a>
    173c:	6714      	strb r3,[r1,0x6]
    173e:	0000      	beq 173e <_HALF_BANK_SIZE_+0x73e>
    1740:	0000      	beq 1740 <_HALF_BANK_SIZE_+0x740>
    1742:	040f 058f 	*unknown*
    1746:	0000      	beq 1746 <_HALF_BANK_SIZE_+0x746>
    1748:	6713      	add r3,r1,-2
    174a:	0000      	beq 174a <_HALF_BANK_SIZE_+0x74a>
    174c:	c700      	beq 16da <_HALF_BANK_SIZE_+0x6da>
    174e:	0005      	ldrb r0,[r0],r0
    1750:	1400      	beq 1778 <_HALF_BANK_SIZE_+0x778>
    1752:	0415      	strb r0,[r1],r0
    1754:	0000      	beq 1754 <_HALF_BANK_SIZE_+0x754>
    1756:	0814      	strb r0,[r2]
    1758:	0001      	ldrb r0,[r0,r0]
    175a:	0000      	beq 175a <_HALF_BANK_SIZE_+0x75a>
    175c:	040f 05b3 	*unknown*
    1760:	0000      	beq 1760 <_HALF_BANK_SIZE_+0x760>
    1762:	4b08 0000 	beq 17f8 <_HALF_BANK_SIZE_+0x7f8>
    1766:	dd00      	beq 1720 <_HALF_BANK_SIZE_+0x720>
    1768:	0005      	ldrb r0,[r0],r0
    176a:	0900      	beq 177c <_HALF_BANK_SIZE_+0x77c>
    176c:	00ca      	lsr r0,r0,r1
    176e:	0000      	beq 176e <_HALF_BANK_SIZE_+0x76e>
    1770:	0002      	moveq r0,r0
    1772:	4b08 0000 	beq 1808 <_HALF_BANK_SIZE_+0x808>
    1776:	ed00      	beq 1750 <_HALF_BANK_SIZE_+0x750>
    1778:	0005      	ldrb r0,[r0],r0
    177a:	0900      	beq 178c <_HALF_BANK_SIZE_+0x78c>
    177c:	00ca      	lsr r0,r0,r1
    177e:	0000      	beq 177e <_HALF_BANK_SIZE_+0x77e>
    1780:	0000      	beq 1780 <_HALF_BANK_SIZE_+0x780>
    1782:	5405      	ldrb r2,[r5],r0
    1784:	0003      	mov r0,0x0
    1786:	0500      	beq 1790 <_HALF_BANK_SIZE_+0x790>
    1788:	011d 02cd 	*unknown*
    178c:	0000      	beq 178c <_HALF_BANK_SIZE_+0x78c>
    178e:	bb19 0004 	*unknown*
    1792:	1000      	beq 17b2 <_HALF_BANK_SIZE_+0x7b2>
    1794:	2105      	ldrb r1,[r0],r2
    1796:	2e01      	ldrb r1,[r3,r4]
    1798:	0006      	lsr r0,r0,0x0
    179a:	1600      	beq 17c6 <_HALF_BANK_SIZE_+0x7c6>
    179c:	037c 0000 	strd r0,[r0,+0x6]
    17a0:	2305      	ldrb r1,[r0],r6
    17a2:	2e01      	ldrb r1,[r3,r4]
    17a4:	0006      	lsr r0,r0,0x0
    17a6:	0000      	beq 17a6 <_HALF_BANK_SIZE_+0x7a6>
    17a8:	5e16      	lsl r2,r7,0x10
    17aa:	0002      	moveq r0,r0
    17ac:	0500      	beq 17b6 <_HALF_BANK_SIZE_+0x7b6>
    17ae:	0124      	ldrh r0,[r0,0x2]
    17b0:	0067      	fix r0,r0
    17b2:	0000      	beq 17b2 <_HALF_BANK_SIZE_+0x7b2>
    17b4:	1604      	ldrb r0,[r5,0x4]
    17b6:	034e      	asr r0,r0,0x1a
    17b8:	0000      	beq 17b8 <_HALF_BANK_SIZE_+0x7b8>
    17ba:	2505      	ldrb r1,[r1],r2
    17bc:	3401      	ldrb r1,[r5,r0]
    17be:	0006      	lsr r0,r0,0x0
    17c0:	0800      	beq 17d0 <_HALF_BANK_SIZE_+0x7d0>
    17c2:	0f00      	beq 17e0 <_HALF_BANK_SIZE_+0x7e0>
    17c4:	f904      	ldrb r7,[r6,0x2]
    17c6:	0005      	ldrb r0,[r0],r0
    17c8:	0f00      	beq 17e6 <_HALF_BANK_SIZE_+0x7e6>
    17ca:	ed04      	ldrb r7,[r3,0x2]
    17cc:	0005      	ldrb r0,[r0],r0
    17ce:	1900      	beq 1800 <_HALF_BANK_SIZE_+0x800>
    17d0:	0091      	strb r0,[r0,r1]
    17d2:	0000      	beq 17d2 <_HALF_BANK_SIZE_+0x7d2>
    17d4:	0510      	bne 17de <_HALF_BANK_SIZE_+0x7de>
    17d6:	013d 066f 	*unknown*
    17da:	0000      	beq 17da <_HALF_BANK_SIZE_+0x7da>
    17dc:	c216      	lsl r6,r0,0x10
    17de:	0003      	mov r0,0x0
    17e0:	0500      	beq 17ea <_HALF_BANK_SIZE_+0x7ea>
    17e2:	013e 066f 	*unknown*
    17e6:	0000      	beq 17e6 <_HALF_BANK_SIZE_+0x7e6>
    17e8:	1600      	beq 1814 <_HALF_BANK_SIZE_+0x814>
    17ea:	03fb 0000 	*unknown*
    17ee:	3f05      	ldrb r1,[r7],r6
    17f0:	6f01      	ldrb r3,[r3,r6]
    17f2:	0006      	lsr r0,r0,0x0
    17f4:	0600      	beq 1800 <_HALF_BANK_SIZE_+0x800>
    17f6:	1716      	lsl r0,r5,0x18
    17f8:	0004      	ldrb r0,[r0]
    17fa:	0500      	beq 1804 <_HALF_BANK_SIZE_+0x804>
    17fc:	0140      	blteu 17fe <_HALF_BANK_SIZE_+0x7fe>
    17fe:	0059 0000 	str r0,[r0,+r0]
    1802:	000c 5908 	ldrb r16,[r48,-0x40]
    1806:	0000      	beq 1806 <_HALF_BANK_SIZE_+0x806>
    1808:	7f00      	beq 1906 <_HALF_BANK_SIZE_+0x906>
    180a:	0006      	lsr r0,r0,0x0
    180c:	0900      	beq 181e <_HALF_BANK_SIZE_+0x81e>
    180e:	00ca      	lsr r0,r0,r1
    1810:	0000      	beq 1810 <_HALF_BANK_SIZE_+0x810>
    1812:	0002      	moveq r0,r0
    1814:	e01a      	add r7,r0,r0
    1816:	5805      	ldrb r2,[r6],r0
    1818:	8002      	moveq r4,r0
    181a:	0007      	fadd r0,r0,r0
    181c:	1600      	beq 1848 <_HALF_BANK_SIZE_+0x848>
    181e:	049f 0000 	*unknown*
    1822:	5a05      	ldrb r2,[r6],r4
    1824:	2802      	moveq r1,r2
    1826:	0000      	beq 1826 <_HALF_BANK_SIZE_+0x826>
    1828:	0000      	beq 1828 <_HALF_BANK_SIZE_+0x828>
    182a:	0116      	lsl r0,r0,0x8
    182c:	0004      	ldrb r0,[r0]
    182e:	0500      	beq 1838 <_HALF_BANK_SIZE_+0x838>
    1830:	025b 054d 	*unknown*
    1834:	0000      	beq 1834 <_HALF_BANK_SIZE_+0x834>
    1836:	1604      	ldrb r0,[r5,0x4]
    1838:	028d 0000 	ldrb r0,[r0],+r5
    183c:	5c05      	ldrb r2,[r7],r0
    183e:	8002      	moveq r4,r0
    1840:	0007      	fadd r0,r0,r0
    1842:	0800      	beq 1852 <_HALF_BANK_SIZE_+0x852>
    1844:	f716      	lsl r7,r5,0x18
    1846:	0004      	ldrb r0,[r0]
    1848:	0500      	beq 1852 <_HALF_BANK_SIZE_+0x852>
    184a:	025d 017e 	*unknown*
    184e:	0000      	beq 184e <_HALF_BANK_SIZE_+0x84e>
    1850:	1628 021d 	bgtu 4527c <__stack_start_+0x3d28c>
    1854:	0000      	beq 1854 <_HALF_BANK_SIZE_+0x854>
    1856:	5e05      	ldrb r2,[r7],r4
    1858:	6702 0000 	*unknown*
    185c:	5000      	beq 18fc <_HALF_BANK_SIZE_+0x8fc>
    185e:	7716      	lsl r3,r5,0x18
    1860:	0003      	mov r0,0x0
    1862:	0500      	beq 186c <_HALF_BANK_SIZE_+0x86c>
    1864:	025f 0060 	*unknown*
    1868:	0000      	beq 1868 <_HALF_BANK_SIZE_+0x868>
    186a:	1658 050d 	bltu a3296 <_HEAP_SIZE_FOR_CORE_+0x23296>
    186e:	0000      	beq 186e <_HALF_BANK_SIZE_+0x86e>
    1870:	6005      	ldrb r3,[r0],r0
    1872:	3a02 0006 	*unknown*
    1876:	6000      	beq 1936 <_HALF_BANK_SIZE_+0x936>
    1878:	8216      	lsl r4,r0,0x10
    187a:	0003      	mov r0,0x0
    187c:	0500      	beq 1886 <_HALF_BANK_SIZE_+0x886>
    187e:	0261      	ldrd r0,[r0,r4]
    1880:	00f2 0000 	*unknown*
    1884:	1670      	bgte 18b0 <_HALF_BANK_SIZE_+0x8b0>
    1886:	0512      	movfs r0,status
    1888:	0000      	beq 1888 <_HALF_BANK_SIZE_+0x888>
    188a:	6205      	ldrb r3,[r0],r4
    188c:	f202 0000 	*unknown*
    1890:	7800      	beq 1980 <_HALF_BANK_SIZE_+0x980>
    1892:	4516      	lsl r2,r1,0x8
    1894:	0001      	ldrb r0,[r0,r0]
    1896:	0500      	beq 18a0 <_HALF_BANK_SIZE_+0x8a0>
    1898:	0263      	mov r0,0x13
    189a:	00f2 0000 	*unknown*
    189e:	1680      	blt 18ca <_HALF_BANK_SIZE_+0x8ca>
    18a0:	04ca      	lsr r0,r1,r1
    18a2:	0000      	beq 18a2 <_HALF_BANK_SIZE_+0x8a2>
    18a4:	6405      	ldrb r3,[r1],r0
    18a6:	9002      	moveq r4,r4
    18a8:	0007      	fadd r0,r0,r0
    18aa:	8800      	beq 17ba <_HALF_BANK_SIZE_+0x7ba>
    18ac:	8116      	lsl r4,r0,0x8
    18ae:	0002      	moveq r0,r0
    18b0:	0500      	beq 18ba <_HALF_BANK_SIZE_+0x8ba>
    18b2:	0265      	ldrd r0,[r0],r4
    18b4:	07a0      	bbeq 18c2 <_HALF_BANK_SIZE_+0x8c2>
    18b6:	0000      	beq 18b6 <_HALF_BANK_SIZE_+0x8b6>
    18b8:	1690      	blte 18e4 <_HALF_BANK_SIZE_+0x8e4>
    18ba:	0424      	ldrh r0,[r1]
    18bc:	0000      	beq 18bc <_HALF_BANK_SIZE_+0x8bc>
    18be:	6605      	ldrb r3,[r1],r4
    18c0:	6702 0000 	*unknown*
    18c4:	a800      	beq 1814 <_HALF_BANK_SIZE_+0x814>
    18c6:	e316      	lsl r7,r0,0x18
    18c8:	0001      	ldrb r0,[r0,r0]
    18ca:	0500      	beq 18d4 <_HALF_BANK_SIZE_+0x8d4>
    18cc:	0267      	fix r0,r0
    18ce:	00f2 0000 	*unknown*
    18d2:	16b0      	bbne 18fe <_HALF_BANK_SIZE_+0x8fe>
    18d4:	0136      	lsl r0,r0,0x9
    18d6:	0000      	beq 18d6 <_HALF_BANK_SIZE_+0x8d6>
    18d8:	6805      	ldrb r3,[r2],r0
    18da:	f202 0000 	*unknown*
    18de:	b800      	beq 184e <_HALF_BANK_SIZE_+0x84e>
    18e0:	d216      	lsl r6,r4,0x10
    18e2:	0001      	ldrb r0,[r0,r0]
    18e4:	0500      	beq 18ee <_HALF_BANK_SIZE_+0x8ee>
    18e6:	0269 00f2 	*unknown*
    18ea:	0000      	beq 18ea <_HALF_BANK_SIZE_+0x8ea>
    18ec:	16c0      	bblt 1918 <_HALF_BANK_SIZE_+0x918>
    18ee:	00f6      	lsl r0,r0,0x7
    18f0:	0000      	beq 18f0 <_HALF_BANK_SIZE_+0x8f0>
    18f2:	6a05      	ldrb r3,[r2],r4
    18f4:	f202 0000 	*unknown*
    18f8:	c800      	beq 1888 <_HALF_BANK_SIZE_+0x888>
    18fa:	0516      	lsl r0,r1,0x8
    18fc:	0001      	ldrb r0,[r0,r0]
    18fe:	0500      	beq 1908 <_HALF_BANK_SIZE_+0x908>
    1900:	026b 00f2 	mov r0,0xf13
    1904:	0000      	beq 1904 <_HALF_BANK_SIZE_+0x904>
    1906:	16d0      	bblte 1932 <_HALF_BANK_SIZE_+0x932>
    1908:	032a      	lsl r0,r0,r6
    190a:	0000      	beq 190a <_HALF_BANK_SIZE_+0x90a>
    190c:	6c05      	ldrb r3,[r3],r0
    190e:	6702 0000 	*unknown*
    1912:	d800      	beq 18c2 <_HALF_BANK_SIZE_+0x8c2>
    1914:	0800      	beq 1924 <_HALF_BANK_SIZE_+0x924>
    1916:	0553 0000 	*unknown*
    191a:	0790      	blte 1928 <_HALF_BANK_SIZE_+0x928>
    191c:	0000      	beq 191c <_HALF_BANK_SIZE_+0x91c>
    191e:	ca09 0000 	ldrb r6,[r2,+r4]
    1922:	1900      	beq 1954 <_HALF_BANK_SIZE_+0x954>
    1924:	0800      	beq 1934 <_HALF_BANK_SIZE_+0x934>
    1926:	0553 0000 	*unknown*
    192a:	07a0      	bbeq 1938 <_HALF_BANK_SIZE_+0x938>
    192c:	0000      	beq 192c <_HALF_BANK_SIZE_+0x92c>
    192e:	ca09 0000 	ldrb r6,[r2,+r4]
    1932:	0700      	beq 1940 <_HALF_BANK_SIZE_+0x940>
    1934:	0800      	beq 1944 <_HALF_BANK_SIZE_+0x944>
    1936:	0553 0000 	*unknown*
    193a:	07b0      	bbne 1948 <_HALF_BANK_SIZE_+0x948>
    193c:	0000      	beq 193c <_HALF_BANK_SIZE_+0x93c>
    193e:	ca09 0000 	ldrb r6,[r2,+r4]
    1942:	1700      	beq 1970 <_HALF_BANK_SIZE_+0x970>
    1944:	1a00      	beq 1978 <_HALF_BANK_SIZE_+0x978>
    1946:	05f0      	bl 1950 <_HALF_BANK_SIZE_+0x950>
    1948:	0271      	strd r0,[r0,r4]
    194a:	07d4      	str r0,[r1,0x7]
    194c:	0000      	beq 194c <_HALF_BANK_SIZE_+0x94c>
    194e:	d116      	lsl r6,r4,0x8
    1950:	0002      	moveq r0,r0
    1952:	0500      	beq 195c <_HALF_BANK_SIZE_+0x95c>
    1954:	0274      	strd r0,[r0,0x4]
    1956:	07d4      	str r0,[r1,0x7]
    1958:	0000      	beq 1958 <_HALF_BANK_SIZE_+0x958>
    195a:	1600      	beq 1986 <_HALF_BANK_SIZE_+0x986>
    195c:	04c1      	ldr r0,[r1,r1]
    195e:	0000      	beq 195e <_HALF_BANK_SIZE_+0x95e>
    1960:	7505      	ldrb r3,[r5],r2
    1962:	e402      	moveq r7,r1
    1964:	0007      	fadd r0,r0,r0
    1966:	7800      	beq 1a56 <_HALF_BANK_SIZE_+0xa56>
    1968:	0800      	beq 1978 <_HALF_BANK_SIZE_+0x978>
    196a:	02c7      	fmsub r0,r0,r5
    196c:	0000      	beq 196c <_HALF_BANK_SIZE_+0x96c>
    196e:	07e4      	ldrd r0,[r1,0x7]
    1970:	0000      	beq 1970 <_HALF_BANK_SIZE_+0x970>
    1972:	ca09 0000 	ldrb r6,[r2,+r4]
    1976:	1d00      	beq 19b0 <_HALF_BANK_SIZE_+0x9b0>
    1978:	0800      	beq 1988 <_HALF_BANK_SIZE_+0x988>
    197a:	0028 0000 	bgtu 197a <_HALF_BANK_SIZE_+0x97a>
    197e:	07f4      	strd r0,[r1,0x7]
    1980:	0000      	beq 1980 <_HALF_BANK_SIZE_+0x980>
    1982:	ca09 0000 	ldrb r6,[r2,+r4]
    1986:	1d00      	beq 19c0 <_HALF_BANK_SIZE_+0x9c0>
    1988:	1b00      	beq 19be <_HALF_BANK_SIZE_+0x9be>
    198a:	05f0      	bl 1994 <_HALF_BANK_SIZE_+0x994>
    198c:	0256      	lsl r0,r0,0x12
    198e:	0816      	lsl r0,r2,0x0
    1990:	0000      	beq 1990 <_HALF_BANK_SIZE_+0x990>
    1992:	bb1c 0003 	strb r5,[r6,+0x1e]
    1996:	0500      	beq 19a0 <_HALF_BANK_SIZE_+0x9a0>
    1998:	026d 067f 	*unknown*
    199c:	0000      	beq 199c <_HALF_BANK_SIZE_+0x99c>
    199e:	e41c 0004 	strb r7,[r1,+0x20]
    19a2:	0500      	beq 19ac <_HALF_BANK_SIZE_+0x9ac>
    19a4:	0276      	lsl r0,r0,0x13
    19a6:	07b0      	bbne 19b4 <_HALF_BANK_SIZE_+0x9b4>
    19a8:	0000      	beq 19a8 <_HALF_BANK_SIZE_+0x9a8>
    19aa:	0800      	beq 19ba <_HALF_BANK_SIZE_+0x9ba>
    19ac:	0553 0000 	*unknown*
    19b0:	0826      	lsr r0,r2,0x1
    19b2:	0000      	beq 19b2 <_HALF_BANK_SIZE_+0x9b2>
    19b4:	ca09 0000 	ldrb r6,[r2,+r4]
    19b8:	1800      	beq 19e8 <_HALF_BANK_SIZE_+0x9e8>
    19ba:	1d00      	beq 19f4 <_HALF_BANK_SIZE_+0x9f4>
    19bc:	0831      	strh r0,[r2,r0]
    19be:	0000      	beq 19be <_HALF_BANK_SIZE_+0x9be>
    19c0:	1514      	strb r0,[r5,0x2]
    19c2:	0004      	ldrb r0,[r0]
    19c4:	0000      	beq 19c4 <_HALF_BANK_SIZE_+0x9c4>
    19c6:	040f 0826 	*unknown*
    19ca:	0000      	beq 19ca <_HALF_BANK_SIZE_+0x9ca>
    19cc:	040f 0168 	*unknown*
    19d0:	0000      	beq 19d0 <_HALF_BANK_SIZE_+0x9d0>
    19d2:	481d 0008 	*unknown*
    19d6:	1400      	beq 19fe <_HALF_BANK_SIZE_+0x9fe>
    19d8:	0067      	fix r0,r0
    19da:	0000      	beq 19da <_HALF_BANK_SIZE_+0x9da>
    19dc:	0f00      	beq 19fa <_HALF_BANK_SIZE_+0x9fa>
    19de:	4e04      	ldrb r2,[r3,0x4]
    19e0:	0008 0f00 	beq 1e19e0 <_PROG_SIZE_FOR_CORE_+0xe19e0>
    19e4:	3d04      	ldrb r1,[r7,0x2]
    19e6:	0008 0800 	beq 1019e6 <_PROG_SIZE_FOR_CORE_+0x19e6>
    19ea:	05ed 0000 	ldrd r0,[r1],+r3
    19ee:	0864      	ldrd r0,[r2]
    19f0:	0000      	beq 19f0 <_HALF_BANK_SIZE_+0x9f0>
    19f2:	ca09 0000 	ldrb r6,[r2,+r4]
    19f6:	0200      	beq 19fa <_HALF_BANK_SIZE_+0x9fa>
    19f8:	1e00      	beq 1a34 <_HALF_BANK_SIZE_+0xa34>
    19fa:	05db 0000 	*unknown*
    19fe:	4201      	ldrb r2,[r0,r4]
    1a00:	0040      	blteu 1a00 <_HALF_BANK_SIZE_+0xa00>
    1a02:	8e00      	beq 191e <_HALF_BANK_SIZE_+0x91e>
    1a04:	0142      	jr r0
    1a06:	0000      	beq 1a06 <_HALF_BANK_SIZE_+0xa06>
    1a08:	9c01      	ldrb r4,[r7,r0]
    1a0a:	0921      	ldrh r0,[r2,r2]
    1a0c:	0000      	beq 1a0c <_HALF_BANK_SIZE_+0xa0c>
    1a0e:	9a1f 0004 	*unknown*
    1a12:	0100      	beq 1a14 <_HALF_BANK_SIZE_+0xa14>
    1a14:	6742 0000 	*unknown*
    1a18:	1e00      	beq 1a54 <_HALF_BANK_SIZE_+0xa54>
    1a1a:	0000      	beq 1a1a <_HALF_BANK_SIZE_+0xa1a>
    1a1c:	2000      	beq 1a5c <_HALF_BANK_SIZE_+0xa5c>
    1a1e:	0064      	ldrd r0,[r0]
    1a20:	4201      	ldrb r2,[r0,r4]
    1a22:	0108 0000 	beq 1a24 <_HALF_BANK_SIZE_+0xa24>
    1a26:	003c 0000 	strh r0,[r0]
    1a2a:	7021      	ldrh r3,[r4,r0]
    1a2c:	0100      	beq 1a2e <_HALF_BANK_SIZE_+0xa2e>
    1a2e:	8545      	ldr r4,[r1],r2
    1a30:	0002      	moveq r0,r0
    1a32:	5a00      	beq 1ae6 <_HALF_BANK_SIZE_+0xae6>
    1a34:	0000      	beq 1a34 <_HALF_BANK_SIZE_+0xa34>
    1a36:	2200      	beq 1a7a <_HALF_BANK_SIZE_+0xa7a>
    1a38:	0580      	blt 1a42 <_HALF_BANK_SIZE_+0xa42>
    1a3a:	0000      	beq 1a3a <_HALF_BANK_SIZE_+0xa3a>
    1a3c:	4601      	ldrb r2,[r1,r4]
    1a3e:	0921      	ldrh r0,[r2,r2]
    1a40:	0000      	beq 1a40 <_HALF_BANK_SIZE_+0xa40>
    1a42:	00a6      	lsr r0,r0,0x5
    1a44:	0000      	beq 1a44 <_HALF_BANK_SIZE_+0xa44>
    1a46:	8e22 0001 	*unknown*
    1a4a:	0100      	beq 1a4c <_HALF_BANK_SIZE_+0xa4c>
    1a4c:	2747      	fmsub r1,r1,r6
    1a4e:	0009 c400 	ldrb r48,[r8,+r0]
    1a52:	0000      	beq 1a52 <_HALF_BANK_SIZE_+0xa52>
    1a54:	2100      	beq 1a96 <_HALF_BANK_SIZE_+0xa96>
    1a56:	006e      	asr r0,r0,0x3
    1a58:	4801      	ldrb r2,[r2,r0]
    1a5a:	0067      	fix r0,r0
    1a5c:	0000      	beq 1a5c <_HALF_BANK_SIZE_+0xa5c>
    1a5e:	0123      	mov r0,0x9
    1a60:	0000      	beq 1a60 <_HALF_BANK_SIZE_+0xa60>
    1a62:	6921      	ldrh r3,[r2,r2]
    1a64:	0100      	beq 1a66 <_HALF_BANK_SIZE_+0xa66>
    1a66:	6749 0000 	ldr r3,[r1,+r6]
    1a6a:	4100      	beq 1aec <_HALF_BANK_SIZE_+0xaec>
    1a6c:	0001      	ldrb r0,[r0,r0]
    1a6e:	2100      	beq 1ab0 <_HALF_BANK_SIZE_+0xab0>
    1a70:	6e66      	lsr r3,r3,0x13
    1a72:	0100      	beq 1a74 <_HALF_BANK_SIZE_+0xa74>
    1a74:	9b4a      	lsr r4,r6,r6
    1a76:	0002      	moveq r0,r0
    1a78:	9400      	beq 19a0 <_HALF_BANK_SIZE_+0x9a0>
    1a7a:	0001      	ldrb r0,[r0,r0]
    1a7c:	2300      	beq 1ac2 <_HALF_BANK_SIZE_+0xac2>
    1a7e:	0586      	lsr r0,r1,0xc
    1a80:	0000      	beq 1a80 <_HALF_BANK_SIZE_+0xa80>
    1a82:	5101      	ldrb r2,[r4,r2]
    1a84:	0024      	ldrh r0,[r0]
    1a86:	0000      	beq 1a86 <_HALF_BANK_SIZE_+0xa86>
    1a88:	1400      	beq 1ab0 <_HALF_BANK_SIZE_+0xab0>
    1a8a:	0009 2100 	ldrb r8,[r0,+r16]
    1a8e:	6e69 0064 	*unknown*
    1a92:	5e01      	ldrb r2,[r7,r4]
    1a94:	0067      	fix r0,r0
    1a96:	0000      	beq 1a96 <_HALF_BANK_SIZE_+0xa96>
    1a98:	01bd 0000 	strh r0,[r0],+r3
    1a9c:	ea25      	ldrh r7,[r2],r4
    1a9e:	0000      	beq 1a9e <_HALF_BANK_SIZE_+0xa9e>
    1aa0:	268e      	asr r1,r1,0x14
    1aa2:	5001      	ldrb r2,[r4,r0]
    1aa4:	7f02 0000 	*unknown*
    1aa8:	2500      	beq 1af2 <_HALF_BANK_SIZE_+0xaf2>
    1aaa:	0134      	strh r0,[r0,0x2]
    1aac:	8e00      	beq 19c8 <_HALF_BANK_SIZE_+0x9c8>
    1aae:	0126      	lsr r0,r0,0x9
    1ab0:	0250      	bltu 1ab4 <_HALF_BANK_SIZE_+0xab4>
    1ab2:	0078 0000 	bgte 1ab2 <_HALF_BANK_SIZE_+0xab2>
    1ab6:	040f 0285 	*unknown*
    1aba:	0000      	beq 1aba <_HALF_BANK_SIZE_+0xaba>
    1abc:	040f 01f7 	*unknown*
    1ac0:	0000      	beq 1ac0 <_HALF_BANK_SIZE_+0xac0>
    1ac2:	ec27      	fmul r7,r3,r0
    1ac4:	0005      	ldrb r0,[r0],r0
    1ac6:	0100      	beq 1ac8 <_HALF_BANK_SIZE_+0xac8>
    1ac8:	670e      	asr r3,r1,0x18
    1aca:	0000      	beq 1aca <_HALF_BANK_SIZE_+0xaca>
    1acc:	0000      	beq 1acc <_HALF_BANK_SIZE_+0xacc>
    1ace:	7528 0004 	bgtu 23b8 <_HALF_BANK_SIZE_+0x13b8>
    1ad2:	0500      	beq 1adc <_HALF_BANK_SIZE_+0xadc>
    1ad4:	02fb 0945 	*unknown*
    1ad8:	0000      	beq 1ad8 <_HALF_BANK_SIZE_+0xad8>
    1ada:	1518 0004 	bne 2304 <_HALF_BANK_SIZE_+0x1304>
	...

Disassembly of section .debug_abbrev:

00000000 <.debug_abbrev>:
   0:	1101      	ldrb r0,[r4,r2]
   2:	2501      	ldrb r1,[r1,r2]
   4:	130e      	asr r0,r4,0x18
   6:	030b 1b0e 	*unknown*
   a:	110e      	asr r0,r4,0x8
   c:	1201      	ldrb r0,[r4,r4]
   e:	1006      	lsr r0,r4,0x0
  10:	0017      	fsub r0,r0,r0
  12:	0200      	beq 16 <_CORE_COL_+0xe>
  14:	002e      	asr r0,r0,0x1
  16:	193f 0e03 	*unknown*
  1a:	0b3a      	sub r0,r2,r6
  1c:	0b3b 1349 	*unknown*
  20:	0111      	strb r0,[r0,r2]
  22:	0612 1840 	*unknown*
  26:	4297      	fsub r2,r0,r5
  28:	0019 0300 	strb r0,[r0,+r48]
  2c:	0024      	ldrh r0,[r0]
  2e:	0b0b 0b3e 	*unknown*
  32:	0803      	mov r0,0x40
  34:	0000      	beq 34 <_CORE_ROW_+0x14>
  36:	0100      	beq 38 <_CORE_ROW_+0x18>
  38:	0111      	strb r0,[r0,r2]
  3a:	0e25      	ldrh r0,[r3],r4
  3c:	0b13      	add r0,r2,-2
  3e:	0e03      	mov r0,0x70
  40:	0111      	strb r0,[r0,r2]
  42:	0612 1710 	*unknown*
  46:	0000      	beq 46 <_CORE_ROW_+0x26>
  48:	2402      	moveq r1,r1
  4a:	0b00      	beq 60 <__loader_args_ptr>
  4c:	3e0b 030b 	*unknown*
  50:	000e      	asr r0,r0,0x0
  52:	0300      	beq 58 <__loader_flags>
  54:	0024      	ldrh r0,[r0]
  56:	0b0b 0b3e 	*unknown*
  5a:	0803      	mov r0,0x40
  5c:	0000      	beq 5c <__loader_flags+0x4>
  5e:	1604      	ldrb r0,[r5,0x4]
  60:	0300      	beq 66 <__loader_args_ptr+0x6>
  62:	3a0e      	asr r1,r6,0x10
  64:	3b0b 490b 	*unknown*
  68:	0013      	add r0,r0,0
  6a:	0500      	beq 74 <__loader_args_ptr+0x14>
  6c:	0016      	lsl r0,r0,0x0
  6e:	0e03      	mov r0,0x70
  70:	0b3a      	sub r0,r2,r6
  72:	053b 1349 	*unknown*
  76:	0000      	beq 76 <__loader_args_ptr+0x16>
  78:	1706      	lsr r0,r5,0x18
  7a:	0b01      	ldrb r0,[r2,r6]
  7c:	3a0b 3b0b 	*unknown*
  80:	010b 0013 	*unknown*
  84:	0700      	beq 92 <__loader_args_ptr+0x32>
  86:	000d 0e03 	*unknown*
  8a:	0b3a      	sub r0,r2,r6
  8c:	0b3b 1349 	*unknown*
  90:	0000      	beq 90 <__loader_args_ptr+0x30>
  92:	0108 4901 	beq 920294 <_PROG_SIZE_FOR_CORE_+0x820294>
  96:	0113      	add r0,r0,2
  98:	0013      	add r0,r0,0
  9a:	0900      	beq ac <__loader_args_ptr+0x4c>
  9c:	0021      	ldrh r0,[r0,r0]
  9e:	1349 0b2f 	*unknown*
  a2:	0000      	beq a2 <__loader_args_ptr+0x42>
  a4:	130a      	eor r0,r4,r6
  a6:	0b01      	ldrb r0,[r2,r6]
  a8:	3a0b 3b0b 	*unknown*
  ac:	010b 0013 	*unknown*
  b0:	0b00      	beq c6 <__loader_args_ptr+0x66>
  b2:	000d 0e03 	*unknown*
  b6:	0b3a      	sub r0,r2,r6
  b8:	0b3b 1349 	*unknown*
  bc:	0b38 0000 	bgteu d2 <__loader_args_ptr+0x72>
  c0:	0f0c 0b00 	ldrb r0,[r19],-0x6
  c4:	000b 0d00 	*unknown*
  c8:	0113      	add r0,r0,2
  ca:	0e03      	mov r0,0x70
  cc:	0b0b 0b3a 	*unknown*
  d0:	0b3b 1301 	*unknown*
  d4:	0000      	beq d4 <__loader_args_ptr+0x74>
  d6:	0d0e      	asr r0,r3,0x8
  d8:	0300      	beq de <__loader_args_ptr+0x7e>
  da:	3a08 3b0b 	beq 76174e <_PROG_SIZE_FOR_CORE_+0x66174e>
  de:	490b 3813 	*unknown*
  e2:	000b 0f00 	*unknown*
  e6:	000f 0b0b 	*unknown*
  ea:	1349 0000 	ldr r0,[r4,+r6]
  ee:	1310      	bne 114 <_init+0x8>
  f0:	0301      	ldrb r0,[r0,r6]
  f2:	0b0e      	asr r0,r2,0x18
  f4:	3a05      	ldrb r1,[r6],r4
  f6:	3b0b 010b 	*unknown*
  fa:	0013      	add r0,r0,0
  fc:	1100      	beq 11e <_init+0x12>
  fe:	000d 0e03 	*unknown*
 102:	0b3a      	sub r0,r2,r6
 104:	0b3b 1349 	*unknown*
 108:	0538 0000 	bgteu 112 <_init+0x6>
 10c:	1512      	movfs r0,lc
 10e:	2700      	beq 15c <_epiphany_start+0x2c>
 110:	0019 1300 	strb r0,[r32,+r48]
 114:	0115      	strb r0,[r0],r2
 116:	1927      	fmul r0,r6,r2
 118:	1349 1301 	*unknown*
 11c:	0000      	beq 11c <_init+0x10>
 11e:	0514      	strb r0,[r1,0x2]
 120:	4900      	beq 1b2 <bss_done+0x40>
 122:	0013      	add r0,r0,0
 124:	1500      	beq 14e <_epiphany_start+0x1e>
 126:	0113      	add r0,r0,2
 128:	0e03      	mov r0,0x70
 12a:	050b 0b3a 	*unknown*
 12e:	053b 1301 	*unknown*
 132:	0000      	beq 132 <_epiphany_start+0x2>
 134:	0d16      	lsl r0,r3,0x8
 136:	0300      	beq 13c <_epiphany_start+0xc>
 138:	3a0e      	asr r1,r6,0x10
 13a:	3b0b 4905 	*unknown*
 13e:	3813      	add r1,r6,0
 140:	000b 1700 	*unknown*
 144:	000d 0e03 	*unknown*
 148:	0b3a      	sub r0,r2,r6
 14a:	053b 1349 	*unknown*
 14e:	0538 0000 	bgteu 158 <_epiphany_start+0x28>
 152:	2618 4900 	bne 92019e <_PROG_SIZE_FOR_CORE_+0x82019e>
 156:	0013      	add r0,r0,0
 158:	1900      	beq 18a <bss_done+0x18>
 15a:	0113      	add r0,r0,2
 15c:	0e03      	mov r0,0x70
 15e:	0b0b 0b3a 	*unknown*
 162:	053b 1301 	*unknown*
 166:	0000      	beq 166 <_epiphany_start+0x36>
 168:	131a      	add r0,r4,r6
 16a:	0b01      	ldrb r0,[r2,r6]
 16c:	3a0b 3b0b 	*unknown*
 170:	0105      	ldrb r0,[r0],r2
 172:	0013      	add r0,r0,0
 174:	1b00      	beq 1aa <bss_done+0x38>
 176:	0117      	fsub r0,r0,r2
 178:	0b0b 0b3a 	*unknown*
 17c:	053b 1301 	*unknown*
 180:	0000      	beq 180 <bss_done+0xe>
 182:	0d1c 0300 	strb r0,[r3],-0x2
 186:	3a0e      	asr r1,r6,0x10
 188:	3b0b 4905 	*unknown*
 18c:	0013      	add r0,r0,0
 18e:	1d00      	beq 1c8 <RDS+0x14>
 190:	0115      	strb r0,[r0],r2
 192:	1927      	fmul r0,r6,r2
 194:	1301      	ldrb r0,[r4,r6]
 196:	0000      	beq 196 <bss_done+0x24>
 198:	2e1e 3f01 	*unknown*
 19c:	0319 3a0e 	*unknown*
 1a0:	3b0b 270b 	*unknown*
 1a4:	8719 1901 	*unknown*
 1a8:	0111      	strb r0,[r0,r2]
 1aa:	0612 1840 	*unknown*
 1ae:	4296      	lsl r2,r0,0x14
 1b0:	0119 0013 	*unknown*
 1b4:	1f00      	beq 1f2 <custom_call+0x1e>
 1b6:	0005      	ldrb r0,[r0],r0
 1b8:	0e03      	mov r0,0x70
 1ba:	0b3a      	sub r0,r2,r6
 1bc:	0b3b 1349 	*unknown*
 1c0:	1702 0000 	*unknown*
 1c4:	8920      	bgtu d6 <__loader_args_ptr+0x76>
 1c6:	0182      	wand
 1c8:	1101      	ldrb r0,[r4,r2]
 1ca:	0101      	ldrb r0,[r0,r2]
 1cc:	0013      	add r0,r0,0
 1ce:	2100      	beq 210 <custom_call+0x3c>
 1d0:	828a      	eor r4,r0,r5
 1d2:	0001      	ldrb r0,[r0,r0]
 1d4:	1802      	moveq r0,r6
 1d6:	4291      	strb r2,[r0,r5]
 1d8:	0018 2200 	bne 4401d8 <_PROG_SIZE_FOR_CORE_+0x3401d8>
 1dc:	8289 0101 	*unknown*
 1e0:	0111      	strb r0,[r0,r2]
 1e2:	0000      	beq 1e2 <custom_call+0xe>
 1e4:	3423      	mov r1,0xa1
 1e6:	0300      	beq 1ec <custom_call+0x18>
 1e8:	3a0e      	asr r1,r6,0x10
 1ea:	3b0b 4905 	*unknown*
 1ee:	3f13      	add r1,r7,-2
 1f0:	3c19 0019 	*unknown*
 1f4:	0000      	beq 1f4 <custom_call+0x20>
 1f6:	1101      	ldrb r0,[r4,r2]
 1f8:	2501      	ldrb r1,[r1,r2]
 1fa:	130e      	asr r0,r4,0x18
 1fc:	030b 100e 	*unknown*
 200:	0017      	fsub r0,r0,r0
 202:	0200      	beq 206 <custom_call+0x32>
 204:	0024      	ldrh r0,[r0]
 206:	0b0b 0b3e 	*unknown*
 20a:	0e03      	mov r0,0x70
 20c:	0000      	beq 20c <custom_call+0x38>
 20e:	2403      	mov r1,0x20
 210:	0b00      	beq 226 <stack_args_loop+0xe>
 212:	3e0b 030b 	*unknown*
 216:	0008 0400 	beq 80216 <_HEAP_SIZE_FOR_CORE_+0x216>
 21a:	0016      	lsl r0,r0,0x0
 21c:	0e03      	mov r0,0x70
 21e:	0b3a      	sub r0,r2,r6
 220:	0b3b 1349 	*unknown*
 224:	0000      	beq 224 <stack_args_loop+0xc>
 226:	1605      	ldrb r0,[r5],r4
 228:	0300      	beq 22e <std_call+0x6>
 22a:	3a0e      	asr r1,r6,0x10
 22c:	3b0b 4905 	*unknown*
 230:	0013      	add r0,r0,0
 232:	0600      	beq 23e <go+0x6>
 234:	0117      	fsub r0,r0,r2
 236:	0b0b 0b3a 	*unknown*
 23a:	0b3b 1301 	*unknown*
 23e:	0000      	beq 23e <go+0x6>
 240:	0d07      	fadd r0,r3,r2
 242:	0300      	beq 248 <deregister_tm_clones>
 244:	3a0e      	asr r1,r6,0x10
 246:	3b0b 490b 	*unknown*
 24a:	0013      	add r0,r0,0
 24c:	0800      	beq 25c <deregister_tm_clones+0x14>
 24e:	0101      	ldrb r0,[r0,r2]
 250:	1349 1301 	*unknown*
 254:	0000      	beq 254 <deregister_tm_clones+0xc>
 256:	2109 4900 	ldrb r17,[r16,+r18]
 25a:	2f13      	add r1,r3,-2
 25c:	000b 0a00 	*unknown*
 260:	0113      	add r0,r0,2
 262:	0b0b 0b3a 	*unknown*
 266:	0b3b 1301 	*unknown*
 26a:	0000      	beq 26a <deregister_tm_clones+0x22>
 26c:	0d0b 0300 	*unknown*
 270:	3a0e      	asr r1,r6,0x10
 272:	3b0b 490b 	*unknown*
 276:	3813      	add r1,r6,0
 278:	000b 0c00 	*unknown*
 27c:	000f 0b0b 	*unknown*
 280:	0000      	beq 280 <register_tm_clones+0xc>
 282:	130d 0301 	*unknown*
 286:	0b0e      	asr r0,r2,0x18
 288:	3a0b 3b0b 	*unknown*
 28c:	010b 0013 	*unknown*
 290:	0e00      	beq 2ac <__do_global_dtors_aux+0x8>
 292:	000d 0803 	*unknown*
 296:	0b3a      	sub r0,r2,r6
 298:	0b3b 1349 	*unknown*
 29c:	0b38 0000 	bgteu 2b2 <__do_global_dtors_aux+0xe>
 2a0:	0f0f 0b00 	*unknown*
 2a4:	490b 0013 	*unknown*
 2a8:	1000      	beq 2c8 <__do_global_dtors_aux+0x24>
 2aa:	0113      	add r0,r0,2
 2ac:	0e03      	mov r0,0x70
 2ae:	050b 0b3a 	*unknown*
 2b2:	0b3b 1301 	*unknown*
 2b6:	0000      	beq 2b6 <__do_global_dtors_aux+0x12>
 2b8:	0d11      	strb r0,[r3,r2]
 2ba:	0300      	beq 2c0 <__do_global_dtors_aux+0x1c>
 2bc:	3a0e      	asr r1,r6,0x10
 2be:	3b0b 490b 	*unknown*
 2c2:	3813      	add r1,r6,0
 2c4:	0005      	ldrb r0,[r0],r0
 2c6:	1200      	beq 2ea <__do_global_dtors_aux+0x46>
 2c8:	0015      	strb r0,[r0],r0
 2ca:	1927      	fmul r0,r6,r2
 2cc:	0000      	beq 2cc <__do_global_dtors_aux+0x28>
 2ce:	1513      	add r0,r5,2
 2d0:	2701      	ldrb r1,[r1,r6]
 2d2:	4919 0113 	*unknown*
 2d6:	0013      	add r0,r0,0
 2d8:	1400      	beq 300 <__do_global_dtors_aux+0x5c>
 2da:	0005      	ldrb r0,[r0],r0
 2dc:	1349 0000 	ldr r0,[r4,+r6]
 2e0:	1315      	strb r0,[r4],r6
 2e2:	0301      	ldrb r0,[r0,r6]
 2e4:	0b0e      	asr r0,r2,0x18
 2e6:	3a05      	ldrb r1,[r6],r4
 2e8:	3b0b 0105 	*unknown*
 2ec:	0013      	add r0,r0,0
 2ee:	1600      	beq 31a <__do_global_dtors_aux+0x76>
 2f0:	000d 0e03 	*unknown*
 2f4:	0b3a      	sub r0,r2,r6
 2f6:	053b 1349 	*unknown*
 2fa:	0b38 0000 	bgteu 310 <__do_global_dtors_aux+0x6c>
 2fe:	0d17      	fsub r0,r3,r2
 300:	0300      	beq 306 <__do_global_dtors_aux+0x62>
 302:	3a0e      	asr r1,r6,0x10
 304:	3b0b 4905 	*unknown*
 308:	3813      	add r1,r6,0
 30a:	0005      	ldrb r0,[r0],r0
 30c:	1800      	beq 33c <frame_dummy+0x20>
 30e:	0026      	lsr r0,r0,0x1
 310:	1349 0000 	ldr r0,[r4,+r6]
 314:	1319 0301 	*unknown*
 318:	0b0e      	asr r0,r2,0x18
 31a:	3a0b 3b0b 	*unknown*
 31e:	0105      	ldrb r0,[r0],r2
 320:	0013      	add r0,r0,0
 322:	1a00      	beq 356 <main+0x6>
 324:	0113      	add r0,r0,2
 326:	0b0b 0b3a 	*unknown*
 32a:	053b 1301 	*unknown*
 32e:	0000      	beq 32e <frame_dummy+0x12>
 330:	171b 0b01 	*unknown*
 334:	3a0b 3b0b 	*unknown*
 338:	0105      	ldrb r0,[r0],r2
 33a:	0013      	add r0,r0,0
 33c:	1c00      	beq 374 <__do_global_ctors_aux+0xc>
 33e:	000d 0e03 	*unknown*
 342:	0b3a      	sub r0,r2,r6
 344:	053b 1349 	*unknown*
 348:	0000      	beq 348 <frame_dummy+0x2c>
 34a:	151d 2701 	*unknown*
 34e:	0119 0013 	*unknown*
 352:	1e00      	beq 38e <__do_global_ctors_aux+0x26>
 354:	0034      	strh r0,[r0]
 356:	0e03      	mov r0,0x70
 358:	0b3a      	sub r0,r2,r6
 35a:	0b3b 1349 	*unknown*
 35e:	1802      	moveq r0,r6
 360:	0000      	beq 360 <main+0x10>
 362:	341f 0300 	*unknown*
 366:	3a0e      	asr r1,r6,0x10
 368:	3b0b 4905 	*unknown*
 36c:	3f13      	add r1,r7,-2
 36e:	0219 0018 	*unknown*
 372:	0000      	beq 372 <__do_global_ctors_aux+0xa>
 374:	1101      	ldrb r0,[r4,r2]
 376:	2501      	ldrb r1,[r1,r2]
 378:	130e      	asr r0,r4,0x18
 37a:	030b 110e 	*unknown*
 37e:	1201      	ldrb r0,[r4,r4]
 380:	1006      	lsr r0,r4,0x0
 382:	0017      	fsub r0,r0,r0
 384:	0200      	beq 388 <__do_global_ctors_aux+0x20>
 386:	0024      	ldrh r0,[r0]
 388:	0b0b 0b3e 	*unknown*
 38c:	0e03      	mov r0,0x70
 38e:	0000      	beq 38e <__do_global_ctors_aux+0x26>
 390:	2403      	mov r1,0x20
 392:	0b00      	beq 3a8 <__do_global_ctors_aux+0x40>
 394:	3e0b 030b 	*unknown*
 398:	0008 0400 	beq 80398 <_HEAP_SIZE_FOR_CORE_+0x398>
 39c:	0016      	lsl r0,r0,0x0
 39e:	0e03      	mov r0,0x70
 3a0:	0b3a      	sub r0,r2,r6
 3a2:	0b3b 1349 	*unknown*
 3a6:	0000      	beq 3a6 <__do_global_ctors_aux+0x3e>
 3a8:	1605      	ldrb r0,[r5],r4
 3aa:	0300      	beq 3b0 <_fini+0x4>
 3ac:	3a0e      	asr r1,r6,0x10
 3ae:	3b0b 4905 	*unknown*
 3b2:	0013      	add r0,r0,0
 3b4:	0600      	beq 3c0 <_fini+0x14>
 3b6:	0117      	fsub r0,r0,r2
 3b8:	0b0b 0b3a 	*unknown*
 3bc:	0b3b 1301 	*unknown*
 3c0:	0000      	beq 3c0 <_fini+0x14>
 3c2:	0d07      	fadd r0,r3,r2
 3c4:	0300      	beq 3ca <__CTOR_LIST__+0x2>
 3c6:	3a0e      	asr r1,r6,0x10
 3c8:	3b0b 490b 	*unknown*
 3cc:	0013      	add r0,r0,0
 3ce:	0800      	beq 3de <__dso_handle+0x2>
 3d0:	0101      	ldrb r0,[r0,r2]
 3d2:	1349 1301 	*unknown*
 3d6:	0000      	beq 3d6 <__DTOR_END__+0x2>
 3d8:	2109 4900 	ldrb r17,[r16,+r18]
 3dc:	2f13      	add r1,r3,-2
 3de:	000b 0a00 	*unknown*
 3e2:	0113      	add r0,r0,2
 3e4:	0b0b 0b3a 	*unknown*
 3e8:	0b3b 1301 	*unknown*
 3ec:	0000      	beq 3ec <dtor_idx.3109>
 3ee:	0d0b 0300 	*unknown*
 3f2:	3a0e      	asr r1,r6,0x10
 3f4:	3b0b 490b 	*unknown*
 3f8:	3813      	add r1,r6,0
 3fa:	000b 0c00 	*unknown*
 3fe:	000f 0b0b 	*unknown*
 402:	0000      	beq 402 <_end+0x12>
 404:	130d 0301 	*unknown*
 408:	0b0e      	asr r0,r2,0x18
 40a:	3a0b 3b0b 	*unknown*
 40e:	010b 0013 	*unknown*
 412:	0e00      	beq 42e <_end+0x3e>
 414:	000d 0803 	*unknown*
 418:	0b3a      	sub r0,r2,r6
 41a:	0b3b 1349 	*unknown*
 41e:	0b38 0000 	bgteu 434 <_end+0x44>
 422:	0f0f 0b00 	*unknown*
 426:	490b 0013 	*unknown*
 42a:	1000      	beq 44a <_end+0x5a>
 42c:	0113      	add r0,r0,2
 42e:	0e03      	mov r0,0x70
 430:	050b 0b3a 	*unknown*
 434:	0b3b 1301 	*unknown*
 438:	0000      	beq 438 <_end+0x48>
 43a:	0d11      	strb r0,[r3,r2]
 43c:	0300      	beq 442 <_end+0x52>
 43e:	3a0e      	asr r1,r6,0x10
 440:	3b0b 490b 	*unknown*
 444:	3813      	add r1,r6,0
 446:	0005      	ldrb r0,[r0],r0
 448:	1200      	beq 46c <_end+0x7c>
 44a:	0015      	strb r0,[r0],r0
 44c:	1927      	fmul r0,r6,r2
 44e:	0000      	beq 44e <_end+0x5e>
 450:	1513      	add r0,r5,2
 452:	2701      	ldrb r1,[r1,r6]
 454:	4919 0113 	*unknown*
 458:	0013      	add r0,r0,0
 45a:	1400      	beq 482 <_end+0x92>
 45c:	0005      	ldrb r0,[r0],r0
 45e:	1349 0000 	ldr r0,[r4,+r6]
 462:	1315      	strb r0,[r4],r6
 464:	0301      	ldrb r0,[r0,r6]
 466:	0b0e      	asr r0,r2,0x18
 468:	3a05      	ldrb r1,[r6],r4
 46a:	3b0b 0105 	*unknown*
 46e:	0013      	add r0,r0,0
 470:	1600      	beq 49c <_end+0xac>
 472:	000d 0e03 	*unknown*
 476:	0b3a      	sub r0,r2,r6
 478:	053b 1349 	*unknown*
 47c:	0b38 0000 	bgteu 492 <_end+0xa2>
 480:	0d17      	fsub r0,r3,r2
 482:	0300      	beq 488 <_end+0x98>
 484:	3a0e      	asr r1,r6,0x10
 486:	3b0b 4905 	*unknown*
 48a:	3813      	add r1,r6,0
 48c:	0005      	ldrb r0,[r0],r0
 48e:	1800      	beq 4be <_end+0xce>
 490:	0026      	lsr r0,r0,0x1
 492:	1349 0000 	ldr r0,[r4,+r6]
 496:	1319 0301 	*unknown*
 49a:	0b0e      	asr r0,r2,0x18
 49c:	3a0b 3b0b 	*unknown*
 4a0:	0105      	ldrb r0,[r0],r2
 4a2:	0013      	add r0,r0,0
 4a4:	1a00      	beq 4d8 <_end+0xe8>
 4a6:	0113      	add r0,r0,2
 4a8:	0b0b 0b3a 	*unknown*
 4ac:	053b 1301 	*unknown*
 4b0:	0000      	beq 4b0 <_end+0xc0>
 4b2:	171b 0b01 	*unknown*
 4b6:	3a0b 3b0b 	*unknown*
 4ba:	0105      	ldrb r0,[r0],r2
 4bc:	0013      	add r0,r0,0
 4be:	1c00      	beq 4f6 <_end+0x106>
 4c0:	000d 0e03 	*unknown*
 4c4:	0b3a      	sub r0,r2,r6
 4c6:	053b 1349 	*unknown*
 4ca:	0000      	beq 4ca <_end+0xda>
 4cc:	151d 2701 	*unknown*
 4d0:	0119 0013 	*unknown*
 4d4:	1e00      	beq 510 <_end+0x120>
 4d6:	012e      	asr r0,r0,0x9
 4d8:	193f 0e03 	*unknown*
 4dc:	0b3a      	sub r0,r2,r6
 4de:	0b3b 1927 	*unknown*
 4e2:	0111      	strb r0,[r0,r2]
 4e4:	0612 1840 	*unknown*
 4e8:	4296      	lsl r2,r0,0x14
 4ea:	0119 0013 	*unknown*
 4ee:	1f00      	beq 52c <_end+0x13c>
 4f0:	0005      	ldrb r0,[r0],r0
 4f2:	0e03      	mov r0,0x70
 4f4:	0b3a      	sub r0,r2,r6
 4f6:	0b3b 1349 	*unknown*
 4fa:	1702 0000 	*unknown*
 4fe:	0520      	bgtu 508 <_end+0x118>
 500:	0300      	beq 506 <_end+0x116>
 502:	3a08 3b0b 	beq 761b76 <_PROG_SIZE_FOR_CORE_+0x661b76>
 506:	490b 0213 	*unknown*
 50a:	0017      	fsub r0,r0,r0
 50c:	2100      	beq 54e <_end+0x15e>
 50e:	0034      	strh r0,[r0]
 510:	0803      	mov r0,0x40
 512:	0b3a      	sub r0,r2,r6
 514:	0b3b 1349 	*unknown*
 518:	1702 0000 	*unknown*
 51c:	3422      	movgtu r1,r5
 51e:	0300      	beq 524 <_end+0x134>
 520:	3a0e      	asr r1,r6,0x10
 522:	3b0b 490b 	*unknown*
 526:	0213      	add r0,r0,-4
 528:	0017      	fsub r0,r0,r0
 52a:	2300      	beq 570 <_end+0x180>
 52c:	000a      	eor r0,r0,r0
 52e:	0e03      	mov r0,0x70
 530:	0b3a      	sub r0,r2,r6
 532:	0b3b 0000 	sub r0,r2,6
 536:	0b24      	ldrh r0,[r2,0x6]
 538:	5501      	ldrb r2,[r5,r2]
 53a:	0117      	fsub r0,r0,r2
 53c:	0013      	add r0,r0,0
 53e:	2500      	beq 588 <_end+0x198>
 540:	8289 0101 	*unknown*
 544:	0111      	strb r0,[r0,r2]
 546:	0000      	beq 546 <_end+0x156>
 548:	8a26      	lsr r4,r2,0x11
 54a:	0182      	wand
 54c:	0200      	beq 550 <_end+0x160>
 54e:	9118 1842 	bne 308a70 <_PROG_SIZE_FOR_CORE_+0x208a70>
 552:	0000      	beq 552 <_end+0x162>
 554:	3427      	fmul r1,r5,r0
 556:	0300      	beq 55c <_end+0x16c>
 558:	3a0e      	asr r1,r6,0x10
 55a:	3b0b 490b 	*unknown*
 55e:	1c13      	add r0,r7,0
 560:	000b 2800 	*unknown*
 564:	0034      	strh r0,[r0]
 566:	0e03      	mov r0,0x70
 568:	0b3a      	sub r0,r2,r6
 56a:	053b 1349 	*unknown*
 56e:	193f 193c 	*unknown*
 572:	0000 	beq 572 <_end+0x182>
	...

Disassembly of section .debug_line:

00000000 <.debug_line>:
   0:	0035      	strh r0,[r0],r0
   2:	0000      	beq 2 <_CORE_NUM_+0x2>
   4:	0002      	moveq r0,r0
   6:	0020      	bgtu 6 <_NUM_COLS_IN_CHIP_+0x2>
   8:	0000      	beq 8 <_CORE_COL_>
   a:	0101      	ldrb r0,[r0,r2]
   c:	0efb 000d 	*unknown*
  10:	0101      	ldrb r0,[r0,r2]
  12:	0101      	ldrb r0,[r0,r2]
  14:	0000      	beq 14 <_CORE_COL_+0xc>
  16:	0100      	beq 18 <_CORE_COL_+0x10>
  18:	0000      	beq 18 <_CORE_COL_+0x10>
  1a:	0001      	ldrb r0,[r0,r0]
  1c:	6f6e      	asr r3,r3,0x1b
  1e:	6874      	strd r3,[r2]
  20:	6e69 2e67 	*unknown*
  24:	0063      	mov r0,0x3
  26:	0000      	beq 26 <_CORE_ROW_+0x6>
  28:	0000      	beq 28 <_CORE_ROW_+0x8>
  2a:	0500      	beq 34 <_CORE_ROW_+0x14>
  2c:	5002      	moveq r2,r4
  2e:	0003      	mov r0,0x0
  30:	0100      	beq 32 <_CORE_ROW_+0x12>
  32:	2f83      	mov r1,0x7c
  34:	0c02      	moveq r0,r3
  36:	0100      	beq 38 <_CORE_ROW_+0x18>
  38:	6001      	ldrb r3,[r0,r0]
  3a:	0001      	ldrb r0,[r0,r0]
  3c:	0200      	beq 40 <_CORE_ROW_+0x20>
  3e:	4100      	beq c0 <__loader_args_ptr+0x60>
  40:	0001      	ldrb r0,[r0,r0]
  42:	0100      	beq 44 <_CORE_ROW_+0x24>
  44:	fb01      	ldrb r7,[r6,r6]
  46:	0d0e      	asr r0,r3,0x8
  48:	0100      	beq 4a <_CORE_ROW_+0x2a>
  4a:	0101      	ldrb r0,[r0,r2]
  4c:	0001      	ldrb r0,[r0,r0]
  4e:	0000      	beq 4e <_CORE_ROW_+0x2e>
  50:	0001      	ldrb r0,[r0,r0]
  52:	0100      	beq 54 <_CORE_ROW_+0x34>
  54:	682f 6d6f 	*unknown*
  58:	2f65      	ldrd r1,[r3],r6
  5a:	6e73 6d69 	*unknown*
  5e:	2f32 6e69 	*unknown*
  62:	7473 612f 	*unknown*
  66:	6164      	ldrd r3,[r0,0x2]
  68:	7470      	bgte 150 <_epiphany_start+0x20>
  6a:	7665      	ldrd r3,[r5],r4
  6c:	2f61      	ldrd r1,[r3,r6]
  6e:	6e75      	strd r3,[r3],r4
  70:	7369 6372 	*unknown*
  74:	322d 3130 	*unknown*
  78:	2e36      	lsl r1,r3,0x11
  7a:	2e33      	sub r1,r3,-4
  7c:	2f31      	strh r1,[r3,r6]
  7e:	656e      	asr r3,r1,0xb
  80:	6c77      	fabs rd,rn
  82:	6269 6c2f 	*unknown*
  86:	6269 2f63 	*unknown*
  8a:	7473 6c64 	*unknown*
  8e:	6269 2f00 	ldrd r11,[r24,+r52]
  92:	6f68 656d 	bgt cadb70 <_PROG_SIZE_FOR_CORE_+0xbadb70>
  96:	732f 696e 	*unknown*
  9a:	326d 692f 	*unknown*
  9e:	736e      	asr r3,r4,0x1b
  a0:	2f74      	strd r1,[r3,0x6]
  a2:	6461      	ldrd r3,[r1,r0]
  a4:	7061      	ldrd r3,[r4,r0]
  a6:	6574      	strd r3,[r1,0x2]
  a8:	6176      	lsl r3,r0,0xb
  aa:	6e2f 7765 	*unknown*
  ae:	696c 2f62 	ldrd r11,[r26],-0x312
  b2:	656e      	asr r3,r1,0xb
  b4:	6c77      	fabs rd,rn
  b6:	6269 6c2f 	*unknown*
  ba:	6269 2f63 	*unknown*
  be:	6e69 6c63 	*unknown*
  c2:	6475      	strd r3,[r1],r0
  c4:	2f65      	ldrd r1,[r3],r6
  c6:	7973 0073 	*unknown*
  ca:	682f 6d6f 	*unknown*
  ce:	2f65      	ldrd r1,[r3],r6
  d0:	6e73 6d69 	*unknown*
  d4:	2f32 6e69 	*unknown*
  d8:	7473 612f 	*unknown*
  dc:	6164      	ldrd r3,[r0,0x2]
  de:	7470      	bgte 1c6 <RDS+0x12>
  e0:	7665      	ldrd r3,[r5],r4
  e2:	2f61      	ldrd r1,[r3,r6]
  e4:	7562 6c69 	*unknown*
  e8:	7364      	ldrd r3,[r4,0x6]
  ea:	622f 2d64 	*unknown*
  ee:	3878 5f36 	bgte be6d5e <_PROG_SIZE_FOR_CORE_+0xae6d5e>
  f2:	3436      	lsl r1,r5,0x1
  f4:	322d 3130 	*unknown*
  f8:	2e36      	lsl r1,r3,0x11
  fa:	2e33      	sub r1,r3,-4
  fc:	2f31      	strh r1,[r3,r6]
  fe:	6367      	fix r3,r0
 100:	2f63      	mov r1,0x7b
 102:	6e69 6c63 	*unknown*
 106:	6475      	strd r3,[r1],r0
 108:	0065      	ldrd r0,[r0],r0
 10a:	682f 6d6f 	*unknown*
 10e:	2f65      	ldrd r1,[r3],r6
 110:	6e73 6d69 	*unknown*
 114:	2f32 6e69 	*unknown*
 118:	7473 612f 	*unknown*
 11c:	6164      	ldrd r3,[r0,0x2]
 11e:	7470      	bgte 206 <custom_call+0x32>
 120:	7665      	ldrd r3,[r5],r4
 122:	2f61      	ldrd r1,[r3,r6]
 124:	656e      	asr r3,r1,0xb
 126:	6c77      	fabs rd,rn
 128:	6269 6e2f 	*unknown*
 12c:	7765      	ldrd r3,[r5],r6
 12e:	696c 2f62 	ldrd r11,[r26],-0x312
 132:	696c 6362 	ldrd r27,[r2],-0x312
 136:	692f 636e 	*unknown*
 13a:	756c 6564 	ldrd r27,[sp,-0x322]
 13e:	0000      	beq 13e <_epiphany_start+0xe>
 140:	7865      	ldrd r3,[r6],r0
 142:	7469 632e 	*unknown*
 146:	0100      	beq 148 <_epiphany_start+0x18>
 148:	0000      	beq 148 <_epiphany_start+0x18>
 14a:	6f6c 6b63 	ldrd r27,[r19],-0x31e
 14e:	682e      	asr r3,r2,0x1
 150:	0200      	beq 154 <_epiphany_start+0x24>
 152:	0000      	beq 152 <_epiphany_start+0x22>
 154:	745f 7079 	*unknown*
 158:	7365      	ldrd r3,[r4],r6
 15a:	682e      	asr r3,r2,0x1
 15c:	0200      	beq 160 <_epiphany_start+0x30>
 15e:	0000      	beq 15e <_epiphany_start+0x2e>
 160:	7473 6464 	*unknown*
 164:	6665      	ldrd r3,[r1],r4
 166:	682e      	asr r3,r2,0x1
 168:	0300      	beq 16e <bss_loop+0x4>
 16a:	0000      	beq 16a <bss_loop>
 16c:	6572 6e65 	*unknown*
 170:	2e74      	strd r1,[r3,0x4]
 172:	0068 0002 	bgt 572 <_end+0x182>
 176:	7300      	beq 25c <deregister_tm_clones+0x14>
 178:	6474      	strd r3,[r1]
 17a:	696c 2e62 	ldrd r11,[r26],+0x312
 17e:	0068 0004 	bgt 97e <_end+0x58e>
 182:	0000      	beq 182 <bss_done+0x10>
 184:	0500      	beq 18e <bss_done+0x1c>
 186:	0002      	moveq r0,r0
 188:	0000      	beq 188 <bss_done+0x16>
 18a:	038e      	asr r0,r0,0x1c
 18c:	013b 0350 	*unknown*
 190:	9e7a      	orr r4,r7,r4
 192:	3482      	movlt r1,r5
 194:	0830      	bgteu 1a4 <bss_done+0x32>
 196:	2f21      	ldrh r1,[r3,r6]
 198:	0c02      	moveq r0,r3
 19a:	0100      	beq 19c <bss_done+0x2a>
 19c:	0701      	ldrb r0,[r1,r6]
 19e:	0001      	ldrb r0,[r0,r0]
 1a0:	0200      	beq 1a4 <bss_done+0x32>
 1a2:	0100      	beq 1a4 <bss_done+0x32>
 1a4:	0001      	ldrb r0,[r0,r0]
 1a6:	0100      	beq 1a8 <bss_done+0x36>
 1a8:	fb01      	ldrb r7,[r6,r6]
 1aa:	0d0e      	asr r0,r3,0x8
 1ac:	0100      	beq 1ae <bss_done+0x3c>
 1ae:	0101      	ldrb r0,[r0,r2]
 1b0:	0001      	ldrb r0,[r0,r0]
 1b2:	0000      	beq 1b2 <bss_done+0x40>
 1b4:	0001      	ldrb r0,[r0,r0]
 1b6:	0100      	beq 1b8 <RDS+0x4>
 1b8:	682f 6d6f 	*unknown*
 1bc:	2f65      	ldrd r1,[r3],r6
 1be:	6e73 6d69 	*unknown*
 1c2:	2f32 6e69 	*unknown*
 1c6:	7473 612f 	*unknown*
 1ca:	6164      	ldrd r3,[r0,0x2]
 1cc:	7470      	bgte 2b4 <__do_global_dtors_aux+0x10>
 1ce:	7665      	ldrd r3,[r5],r4
 1d0:	2f61      	ldrd r1,[r3,r6]
 1d2:	656e      	asr r3,r1,0xb
 1d4:	6c77      	fabs rd,rn
 1d6:	6269 6e2f 	*unknown*
 1da:	7765      	ldrd r3,[r5],r6
 1dc:	696c 2f62 	ldrd r11,[r26],-0x312
 1e0:	696c 6362 	ldrd r27,[r2],-0x312
 1e4:	692f 636e 	*unknown*
 1e8:	756c 6564 	ldrd r27,[sp,-0x322]
 1ec:	732f 7379 	*unknown*
 1f0:	2f00      	beq 24e <deregister_tm_clones+0x6>
 1f2:	6f68 656d 	bgt cadcd0 <_PROG_SIZE_FOR_CORE_+0xbadcd0>
 1f6:	732f 696e 	*unknown*
 1fa:	326d 692f 	*unknown*
 1fe:	736e      	asr r3,r4,0x1b
 200:	2f74      	strd r1,[r3,0x6]
 202:	6461      	ldrd r3,[r1,r0]
 204:	7061      	ldrd r3,[r4,r0]
 206:	6574      	strd r3,[r1,0x2]
 208:	6176      	lsl r3,r0,0xb
 20a:	622f 6975 	*unknown*
 20e:	646c 2f73 	ldrd r11,[r25],-0x398
 212:	6462      	movgt r3,r1
 214:	782d 3638 	*unknown*
 218:	365f 2d34 	*unknown*
 21c:	3032      	movgteu r1,r4
 21e:	3631      	strh r1,[r5,r4]
 220:	332e      	asr r1,r4,0x19
 222:	312e      	asr r1,r4,0x9
 224:	672f 6363 	*unknown*
 228:	692f 636e 	*unknown*
 22c:	756c 6564 	ldrd r27,[sp,-0x322]
 230:	2f00      	beq 28e <register_tm_clones+0x1a>
 232:	6f68 656d 	bgt cadd10 <_PROG_SIZE_FOR_CORE_+0xbadd10>
 236:	732f 696e 	*unknown*
 23a:	326d 692f 	*unknown*
 23e:	736e      	asr r3,r4,0x1b
 240:	2f74      	strd r1,[r3,0x6]
 242:	6461      	ldrd r3,[r1,r0]
 244:	7061      	ldrd r3,[r4,r0]
 246:	6574      	strd r3,[r1,0x2]
 248:	6176      	lsl r3,r0,0xb
 24a:	752f 696e 	*unknown*
 24e:	7273 2d63 	*unknown*
 252:	3032      	movgteu r1,r4
 254:	3631      	strh r1,[r5,r4]
 256:	332e      	asr r1,r4,0x19
 258:	312e      	asr r1,r4,0x9
 25a:	6e2f 7765 	*unknown*
 25e:	696c 2f62 	ldrd r11,[r26],-0x312
 262:	696c 6362 	ldrd r27,[r2],-0x312
 266:	722f 6565 	*unknown*
 26a:	746e      	asr r3,r5,0x3
 26c:	0000      	beq 26c <deregister_tm_clones+0x24>
 26e:	6f6c 6b63 	ldrd r27,[r19],-0x31e
 272:	682e      	asr r3,r2,0x1
 274:	0100      	beq 276 <register_tm_clones+0x2>
 276:	0000      	beq 276 <register_tm_clones+0x2>
 278:	745f 7079 	*unknown*
 27c:	7365      	ldrd r3,[r4],r6
 27e:	682e      	asr r3,r2,0x1
 280:	0100      	beq 282 <register_tm_clones+0xe>
 282:	0000      	beq 282 <register_tm_clones+0xe>
 284:	7473 6464 	*unknown*
 288:	6665      	ldrd r3,[r1],r4
 28a:	682e      	asr r3,r2,0x1
 28c:	0200      	beq 290 <register_tm_clones+0x1c>
 28e:	0000      	beq 28e <register_tm_clones+0x1a>
 290:	6572 6e65 	*unknown*
 294:	2e74      	strd r1,[r3,0x4]
 296:	0068 0001 	bgt 496 <_end+0xa6>
 29a:	6900      	beq 36c <__do_global_ctors_aux+0x4>
 29c:	706d 7275 	*unknown*
 2a0:	2e65      	ldrd r1,[r3],r4
 2a2:	0063      	mov r0,0x3
 2a4:	0003      	mov r0,0x0
 2a6:	0000      	beq 2a6 <__do_global_dtors_aux+0x2>
 2a8:	0172 0000 	*unknown*
 2ac:	0002      	moveq r0,r0
 2ae:	0109 0000 	ldrb r0,[r0,+r2]
 2b2:	0101      	ldrb r0,[r0,r2]
 2b4:	0efb 000d 	*unknown*
 2b8:	0101      	ldrb r0,[r0,r2]
 2ba:	0101      	ldrb r0,[r0,r2]
 2bc:	0000      	beq 2bc <__do_global_dtors_aux+0x18>
 2be:	0100      	beq 2c0 <__do_global_dtors_aux+0x1c>
 2c0:	0000      	beq 2c0 <__do_global_dtors_aux+0x1c>
 2c2:	2f01      	ldrb r1,[r3,r6]
 2c4:	6f68 656d 	bgt cadda2 <_PROG_SIZE_FOR_CORE_+0xbadda2>
 2c8:	732f 696e 	*unknown*
 2cc:	326d 692f 	*unknown*
 2d0:	736e      	asr r3,r4,0x1b
 2d2:	2f74      	strd r1,[r3,0x6]
 2d4:	6461      	ldrd r3,[r1,r0]
 2d6:	7061      	ldrd r3,[r4,r0]
 2d8:	6574      	strd r3,[r1,0x2]
 2da:	6176      	lsl r3,r0,0xb
 2dc:	752f 696e 	*unknown*
 2e0:	7273 2d63 	*unknown*
 2e4:	3032      	movgteu r1,r4
 2e6:	3631      	strh r1,[r5,r4]
 2e8:	332e      	asr r1,r4,0x19
 2ea:	312e      	asr r1,r4,0x9
 2ec:	6e2f 7765 	*unknown*
 2f0:	696c 2f62 	ldrd r11,[r26],-0x312
 2f4:	696c 6362 	ldrd r27,[r2],-0x312
 2f8:	732f 6474 	*unknown*
 2fc:	696c 0062 	ldrd r3,[r2,+0x312]
 300:	682f 6d6f 	*unknown*
 304:	2f65      	ldrd r1,[r3],r6
 306:	6e73 6d69 	*unknown*
 30a:	2f32 6e69 	*unknown*
 30e:	7473 612f 	*unknown*
 312:	6164      	ldrd r3,[r0,0x2]
 314:	7470      	bgte 3fc <_end+0xc>
 316:	7665      	ldrd r3,[r5],r4
 318:	2f61      	ldrd r1,[r3,r6]
 31a:	656e      	asr r3,r1,0xb
 31c:	6c77      	fabs rd,rn
 31e:	6269 6e2f 	*unknown*
 322:	7765      	ldrd r3,[r5],r6
 324:	696c 2f62 	ldrd r11,[r26],-0x312
 328:	696c 6362 	ldrd r27,[r2],-0x312
 32c:	692f 636e 	*unknown*
 330:	756c 6564 	ldrd r27,[sp,-0x322]
 334:	732f 7379 	*unknown*
 338:	2f00      	beq 396 <__do_global_ctors_aux+0x2e>
 33a:	6f68 656d 	bgt cade18 <_PROG_SIZE_FOR_CORE_+0xbade18>
 33e:	732f 696e 	*unknown*
 342:	326d 692f 	*unknown*
 346:	736e      	asr r3,r4,0x1b
 348:	2f74      	strd r1,[r3,0x6]
 34a:	6461      	ldrd r3,[r1,r0]
 34c:	7061      	ldrd r3,[r4,r0]
 34e:	6574      	strd r3,[r1,0x2]
 350:	6176      	lsl r3,r0,0xb
 352:	622f 6975 	*unknown*
 356:	646c 2f73 	ldrd r11,[r25],-0x398
 35a:	6462      	movgt r3,r1
 35c:	782d 3638 	*unknown*
 360:	365f 2d34 	*unknown*
 364:	3032      	movgteu r1,r4
 366:	3631      	strh r1,[r5,r4]
 368:	332e      	asr r1,r4,0x19
 36a:	312e      	asr r1,r4,0x9
 36c:	672f 6363 	*unknown*
 370:	692f 636e 	*unknown*
 374:	756c 6564 	ldrd r27,[sp,-0x322]
 378:	0000      	beq 378 <__do_global_ctors_aux+0x10>
 37a:	5f5f 6163 	*unknown*
 37e:	6c6c 615f 	ldrd r27,[r3,-0x2f8]
 382:	6574      	strd r3,[r1,0x2]
 384:	6978 2e74 	bgte 5cec56 <_PROG_SIZE_FOR_CORE_+0x4cec56>
 388:	0063      	mov r0,0x3
 38a:	0001      	ldrb r0,[r0,r0]
 38c:	6c00      	beq 464 <_end+0x74>
 38e:	636f 2e6b 	*unknown*
 392:	0068 0002 	bgt 792 <_end+0x3a2>
 396:	5f00      	beq 454 <_end+0x64>
 398:	7974      	strd r3,[r6,0x2]
 39a:	6570      	bgte 464 <_end+0x74>
 39c:	2e73 0068 	*unknown*
 3a0:	0002      	moveq r0,r0
 3a2:	7300      	beq 488 <_end+0x98>
 3a4:	6474      	strd r3,[r1]
 3a6:	6564      	ldrd r3,[r1,0x2]
 3a8:	2e66      	lsr r1,r3,0x13
 3aa:	0068 0003 	bgt 9aa <_end+0x5ba>
 3ae:	7200      	beq 492 <_end+0xa2>
 3b0:	6565      	ldrd r3,[r1],r2
 3b2:	746e      	asr r3,r5,0x3
 3b4:	682e      	asr r3,r2,0x1
 3b6:	0200      	beq 3ba <_fini+0xe>
 3b8:	0000      	beq 3b8 <_fini+0xc>
 3ba:	0000      	beq 3ba <_fini+0xe>
 3bc:	0205      	ldrb r0,[r0],r4
 3be:	0040      	blteu 3be <_fini+0x12>
 3c0:	8e00      	beq 2dc <__do_global_dtors_aux+0x38>
 3c2:	c303      	mov r6,0x18
 3c4:	0100      	beq 3c6 <_fini+0x1a>
 3c6:	3103      	mov r1,0x88
 3c8:	2a02 0301 	*unknown*
 3cc:	2e77      	fabs rd,rn
 3ce:	5803      	mov r2,0xc0
 3d0:	032e      	asr r0,r0,0x19
 3d2:	820f a584 	*unknown*
 3d6:	0200      	beq 3da <__JCR_END__+0x2>
 3d8:	0204      	ldrb r0,[r0,0x4]
 3da:	2708 7903 	beq f20a28 <_PROG_SIZE_FOR_CORE_+0xe20a28>
 3de:	899e 496c 	*unknown*
 3e2:	694b 6c31 	*unknown*
 3e6:	4d7f 8330 	*unknown*
 3ea:	00c1      	ldr r0,[r0,r1]
 3ec:	0402      	moveq r0,r1
 3ee:	0601      	ldrb r0,[r1,r4]
 3f0:	069e 5d03 	*unknown*
 3f4:	039e 822c 	*unknown*
 3f8:	00bf 0402 	movbne r0,r8
 3fc:	0601      	ldrb r0,[r1,r4]
 3fe:	0682 4f85 	*unknown*
 402:	03d7      	float r0,r0
 404:	7fbf 034a 	*unknown*
 408:	00ce      	asr r0,r0,0x6
 40a:	0366      	lsr r0,r0,0x1b
 40c:	0853 03ac 	*unknown*
 410:	6674      	strd r3,[r1,0x4]
 412:	1003      	mov r0,0x80
 414:	0366      	lsr r0,r0,0x1b
 416:	d620      	bgtu 3c2 <_fini+0x16>
 418:	024b 000a 	*unknown*
 41c:	0101 	ldrb r0,[r0,r2]

Disassembly of section .debug_frame:

00000000 <.debug_frame>:
   0:	000c 0000 	ldrb r0,[r0,+0x0]
   4:	ffff ffff 	*unknown*
   8:	0003      	mov r0,0x0
   a:	7c01      	ldrb r3,[r7,r0]
   c:	0c0e      	asr r0,r3,0x0
   e:	080d 001c 	*unknown*
  12:	0000      	beq 12 <_CORE_COL_+0xa>
  14:	0000      	beq 14 <_CORE_COL_+0xc>
  16:	0000      	beq 16 <_CORE_COL_+0xe>
  18:	0350      	bltu 1e <_CORE_COL_+0x16>
  1a:	0000      	beq 1a <_CORE_COL_+0x12>
  1c:	0016      	lsl r0,r0,0x0
  1e:	0000      	beq 1e <_CORE_COL_+0x16>
  20:	0404      	ldrb r0,[r1]
  22:	0000      	beq 22 <_CORE_ROW_+0x2>
  24:	0e00      	beq 40 <_CORE_ROW_+0x20>
  26:	8f18 0402 	bne 80544 <_HEAP_SIZE_FOR_CORE_+0x544>
  2a:	0004      	ldrb r0,[r0]
  2c:	0000      	beq 2c <_CORE_ROW_+0xc>
  2e:	0f0d 000c 	*unknown*
  32:	0000      	beq 32 <_CORE_ROW_+0x12>
  34:	ffff ffff 	*unknown*
  38:	0003      	mov r0,0x0
  3a:	7c01      	ldrb r3,[r7,r0]
  3c:	0c0e      	asr r0,r3,0x0
  3e:	080d 0020 	*unknown*
  42:	0000      	beq 42 <_CORE_ROW_+0x22>
  44:	0030      	bgteu 44 <_CORE_ROW_+0x24>
  46:	0000      	beq 46 <_CORE_ROW_+0x26>
  48:	0000      	beq 48 <_CORE_ROW_+0x28>
  4a:	8e00      	beq ffffff66 <_exit+0x71fff98e>
  4c:	003a      	sub r0,r0,r0
  4e:	0000      	beq 4e <_CORE_ROW_+0x2e>
  50:	0404      	ldrb r0,[r1]
  52:	0000      	beq 52 <_CORE_ROW_+0x32>
  54:	0e00      	beq 70 <__loader_args_ptr+0x10>
  56:	8418 0402 	bne 8055e <_HEAP_SIZE_FOR_CORE_+0x55e>
  5a:	0012      	movne r0,r0
  5c:	0000      	beq 5c <__loader_flags+0x4>
  5e:	018e      	asr r0,r0,0xc
  60:	038f 0000 	*unknown*
  64:	000c 0000 	ldrb r0,[r0,+0x0]
  68:	ffff ffff 	*unknown*
  6c:	0003      	mov r0,0x0
  6e:	7c01      	ldrb r3,[r7,r0]
  70:	0c0e      	asr r0,r3,0x0
  72:	080d 0034 	*unknown*
  76:	0000      	beq 76 <__loader_args_ptr+0x16>
  78:	0064      	ldrd r0,[r0]
  7a:	0000      	beq 7a <__loader_args_ptr+0x1a>
  7c:	0040      	blteu 7c <__loader_args_ptr+0x1c>
  7e:	8e00      	beq ffffff9a <_exit+0x71fff9c2>
  80:	0142      	jr r0
  82:	0000      	beq 82 <__loader_args_ptr+0x22>
  84:	0e04      	ldrb r0,[r3,0x4]
  86:	0000      	beq 86 <__loader_args_ptr+0x26>
  88:	0e00      	beq a4 <__loader_args_ptr+0x44>
  8a:	8438 8502 	bgteu ff0a0592 <_exit+0x7109ffba>
  8e:	0401      	ldrb r0,[r1,r0]
  90:	0010      	bne 90 <__loader_args_ptr+0x30>
  92:	0000      	beq 92 <__loader_args_ptr+0x32>
  94:	0486      	lsr r0,r1,0x4
  96:	0387      	fadd r0,r0,r7
  98:	0688 0589 	blt b12a4 <_HEAP_SIZE_FOR_CORE_+0x312a4>
  9c:	0a8e      	asr r0,r2,0x14
  9e:	098f 1404 	*unknown*
  a2:	0000      	beq a2 <__loader_args_ptr+0x42>
  a4:	8a00      	beq ffffffb8 <_exit+0x71fff9e0>
  a6:	8b08 0007 	beq fbc <_end+0xbcc>
	...

Disassembly of section .debug_str:

00000000 <.debug_str>:
   0:	682f 6d6f 	*unknown*
   4:	2f65      	ldrd r1,[r3],r6
   6:	6e73 6d69 	*unknown*
   a:	2f32 6544 	*unknown*
   e:	6b73 6f74 	*unknown*
  12:	2f70      	bgte 70 <__loader_args_ptr+0x10>
  14:	6f77      	fabs rd,rn
  16:	6b72 6e69 	*unknown*
  1a:	2f67      	fix r1,r3
  1c:	7566      	lsr r3,r5,0xb
  1e:	7574      	strd r3,[r5,0x2]
  20:	6572 6f63 	*unknown*
  24:	6572 722f 	*unknown*
  28:	7665      	ldrd r3,[r5],r4
  2a:	6c65      	ldrd r3,[r3],r0
  2c:	7461      	ldrd r3,[r5,r0]
  2e:	6f69 2f6e 	*unknown*
  32:	6572 6576 	*unknown*
  36:	616c 6974 	ldrd r27,[r16,-0x3a2]
  3a:	6e6f 742f 	*unknown*
  3e:	7365      	ldrd r3,[r4],r6
  40:	2f74      	strd r1,[r3,0x6]
  42:	6467      	fix r3,r1
  44:	2f62 6c65 	*unknown*
  48:	7366      	lsr r3,r4,0x1b
  4a:	6e00      	beq 126 <_init+0x1a>
  4c:	746f 6968 	*unknown*
  50:	676e      	asr r3,r1,0x1b
  52:	632e      	asr r3,r0,0x19
  54:	6d00      	beq 12e <_init+0x22>
  56:	6961      	ldrd r3,[r2,r2]
  58:	006e      	asr r0,r0,0x3
  5a:	4e47      	fmsub r2,r3,r4
  5c:	2055      	str r1,[r0],r0
  5e:	3143      	mov r1,0x8a
  60:	2031      	strh r1,[r0,r0]
  62:	2e35      	strh r1,[r3],r4
  64:	2e32 2030 	*unknown*
  68:	672d 2d20 	*unknown*
  6c:	6166      	lsr r3,r0,0xb
  6e:	696c 6e67 	ldrd r27,[r26],+0x33a
  72:	662d 6e75 	*unknown*
  76:	7463      	mov r3,0xa3
  78:	6f69 736e 	*unknown*
  7c:	383d 5f00 	strh r17,[r62],+r48
  80:	7364      	ldrd r3,[r4,0x6]
  82:	5f6f 6168 	*unknown*
  86:	646e      	asr r3,r1,0x3
  88:	656c 5f00 	ldrd r19,[r57],-0x2
  8c:	6973 657a 	*unknown*
  90:	5f00      	beq 14e <_epiphany_start+0x1e>
  92:	6172 646e 	*unknown*
  96:	3834      	strh r1,[r6]
  98:	5f00      	beq 156 <_epiphany_start+0x26>
  9a:	6d65      	ldrd r3,[r3],r2
  9c:	7265      	ldrd r3,[r4],r4
  9e:	6567      	fix r3,r1
  a0:	636e      	asr r3,r0,0x1b
  a2:	0079 4e47 	*unknown*
  a6:	2055      	str r1,[r0],r0
  a8:	3143      	mov r1,0x8a
  aa:	2031      	strh r1,[r0,r0]
  ac:	2e35      	strh r1,[r3],r4
  ae:	2e32 2030 	*unknown*
  b2:	672d 2d20 	*unknown*
  b6:	324f 2d20 	*unknown*
  ba:	6e66      	lsr r3,r3,0x13
  bc:	2d6f 7562 	*unknown*
  c0:	6c69 6974 	*unknown*
  c4:	206e      	asr r1,r0,0x3
  c6:	662d 6966 	*unknown*
  ca:	6578 2d64 	bgte 5ac994 <_PROG_SIZE_FOR_CORE_+0x4ac994>
  ce:	3472      	movgte r1,r5
  d0:	2030      	bgteu 110 <_init+0x4>
  d2:	662d 6966 	*unknown*
  d6:	6578 2d64 	bgte 5ac9a0 <_PROG_SIZE_FOR_CORE_+0x4ac9a0>
  da:	3472      	movgte r1,r5
  dc:	2031      	strh r1,[r0,r0]
  de:	662d 6966 	*unknown*
  e2:	6578 2d64 	bgte 5ac9ac <_PROG_SIZE_FOR_CORE_+0x4ac9ac>
  e6:	3472      	movgte r1,r5
  e8:	2032      	movgteu r1,r0
  ea:	662d 6966 	*unknown*
  ee:	6578 2d64 	bgte 5ac9b8 <_PROG_SIZE_FOR_CORE_+0x4ac9b8>
  f2:	3472      	movgte r1,r5
  f4:	0033      	sub r0,r0,0
  f6:	775f 7263 	*unknown*
  fa:	6f74      	strd r3,[r3,0x6]
  fc:	626d 735f 	*unknown*
 100:	6174      	strd r3,[r0,0x2]
 102:	6574      	strd r3,[r1,0x2]
 104:	5f00      	beq 1c2 <RDS+0xe>
 106:	6377      	fabs rd,rn
 108:	7273 6f74 	*unknown*
 10c:	626d 5f73 	*unknown*
 110:	7473 7461 	*unknown*
 114:	0065      	ldrd r0,[r0],r0
 116:	6f6c 676e 	ldrd r27,[r11],-0x376
 11a:	6c20      	bgtu 1f2 <custom_call+0x1e>
 11c:	6e6f 2067 	*unknown*
 120:	6e75      	strd r3,[r3],r4
 122:	6973 6e67 	*unknown*
 126:	6465      	ldrd r3,[r1],r0
 128:	6920      	bgtu 1fa <custom_call+0x26>
 12a:	746e      	asr r3,r5,0x3
 12c:	5f00      	beq 1ea <custom_call+0x16>
 12e:	626c 7366 	ldrd r27,[r32],-0x334
 132:	7a69 0065 	*unknown*
 136:	6d5f 7262 	*unknown*
 13a:	6f74      	strd r3,[r3,0x6]
 13c:	6377      	fabs rd,rn
 13e:	735f 6174 	*unknown*
 142:	6574      	strd r3,[r1,0x2]
 144:	5f00      	beq 202 <custom_call+0x2e>
 146:	6377      	fabs rd,rn
 148:	6f74      	strd r3,[r3,0x6]
 14a:	626d 735f 	*unknown*
 14e:	6174      	strd r3,[r0,0x2]
 150:	6574      	strd r3,[r1,0x2]
 152:	5f00      	beq 210 <custom_call+0x3c>
 154:	745f 5f6d 	*unknown*
 158:	6573 0063 	*unknown*
 15c:	6f6c 676e 	ldrd r27,[r11],-0x376
 160:	6c20      	bgtu 238 <go>
 162:	6e6f 2067 	*unknown*
 166:	6e69 0074 	*unknown*
 16a:	755f 7562 	*unknown*
 16e:	0066      	lsr r0,r0,0x3
 170:	625f 7361 	*unknown*
 174:	0065      	ldrd r0,[r0],r0
 176:	5f5f 6d74 	*unknown*
 17a:	685f 756f 	*unknown*
 17e:	0072      	movgte r0,r0
 180:	5f5f 6673 	*unknown*
 184:	5f00      	beq 242 <go+0xa>
 186:	6e6f 655f 	*unknown*
 18a:	6978 5f74 	bgte beea5c <_PROG_SIZE_FOR_CORE_+0xaeea5c>
 18e:	7261      	ldrd r3,[r4,r4]
 190:	7367      	fix r3,r4
 192:	5f00      	beq 250 <deregister_tm_clones+0x8>
 194:	6f63      	mov r3,0x7b
 196:	6b6f 6569 	*unknown*
 19a:	5f00      	beq 258 <deregister_tm_clones+0x10>
 19c:	735f 6c67 	*unknown*
 1a0:	6575      	strd r3,[r1],r2
 1a2:	5f00      	beq 260 <deregister_tm_clones+0x18>
 1a4:	6c66      	lsr r3,r3,0x3
 1a6:	6761      	ldrd r3,[r1,r6]
 1a8:	0073 695f 	*unknown*
 1ac:	5f73 7863 	*unknown*
 1b0:	0061      	ldrd r0,[r0,r0]
 1b2:	735f 6474 	*unknown*
 1b6:	6e69 5f00 	ldrd r19,[r59,+r52]
 1ba:	6c62      	movgt r3,r3
 1bc:	736b 7a69 	*unknown*
 1c0:	0065      	ldrd r0,[r0],r0
 1c2:	635f 7476 	*unknown*
 1c6:	7562 0066 	*unknown*
 1ca:	6f5f 6666 	*unknown*
 1ce:	6573 0074 	*unknown*
 1d2:	6d5f 7362 	*unknown*
 1d6:	7472      	movgte r3,r5
 1d8:	776f 7363 	*unknown*
 1dc:	735f 6174 	*unknown*
 1e0:	6574      	strd r3,[r1,0x2]
 1e2:	5f00      	beq 2a0 <register_tm_clones+0x2c>
 1e4:	626d 6c72 	*unknown*
 1e8:	6e65      	ldrd r3,[r3],r4
 1ea:	735f 6174 	*unknown*
 1ee:	6574      	strd r3,[r1,0x2]
 1f0:	5f00      	beq 2ae <__do_global_dtors_aux+0xa>
 1f2:	6e66      	lsr r3,r3,0x13
 1f4:	7261      	ldrd r3,[r4,r4]
 1f6:	7367      	fix r3,r4
 1f8:	5f00      	beq 2b6 <__do_global_dtors_aux+0x12>
 1fa:	6e66      	lsr r3,r3,0x13
 1fc:	0073 735f 	*unknown*
 200:	6769 006e 	*unknown*
 204:	665f 6f6c 	*unknown*
 208:	6b63      	mov r3,0x5b
 20a:	745f 5f00 	*unknown*
 20e:	7473 6564 	*unknown*
 212:	7272 5f00 	*unknown*
 216:	6942 6967 	*unknown*
 21a:	746e      	asr r3,r5,0x3
 21c:	5f00      	beq 2da <__do_global_dtors_aux+0x36>
 21e:	6167      	fix r3,r0
 220:	6d6d 5f61 	*unknown*
 224:	6973 6e67 	*unknown*
 228:	6167      	fix r3,r0
 22a:	006d 725f 	*unknown*
 22e:	6165      	ldrd r3,[r0],r2
 230:	0064      	ldrd r0,[r0]
 232:	725f 7365 	*unknown*
 236:	6c75      	strd r3,[r3],r0
 238:	5f74      	strd r2,[r7,0x6]
 23a:	006b 5f5f 	*unknown*
 23e:	6d74      	strd r3,[r3,0x2]
 240:	5f00      	beq 2fe <__do_global_dtors_aux+0x5a>
 242:	775f 6863 	*unknown*
 246:	0062      	movgt r0,r0
 248:	735f 6474 	*unknown*
 24c:	756f 0074 	*unknown*
 250:	635f 7476 	*unknown*
 254:	656c 006e 	ldrd r3,[r1,+0x372]
 258:	665f 6c69 	*unknown*
 25c:	0065      	ldrd r0,[r0],r0
 25e:	6e5f 6f69 	*unknown*
 262:	7362 7300 	*unknown*
 266:	6f68 7472 	bgt e8e744 <_PROG_SIZE_FOR_CORE_+0xd8e744>
 26a:	7520      	bgtu 354 <main+0x4>
 26c:	736e      	asr r3,r4,0x1b
 26e:	6769 656e 	*unknown*
 272:	2064      	ldrd r1,[r0]
 274:	6e69 0074 	*unknown*
 278:	615f 6574 	*unknown*
 27c:	6978 3074 	bgte 60eb4e <_PROG_SIZE_FOR_CORE_+0x50eb4e>
 280:	5f00      	beq 33e <frame_dummy+0x22>
 282:	6973 6e67 	*unknown*
 286:	6c61      	ldrd r3,[r3,r0]
 288:	625f 6675 	*unknown*
 28c:	5f00      	beq 34a <frame_dummy+0x2e>
 28e:	7361      	ldrd r3,[r4,r6]
 290:	7463      	mov r3,0xa3
 292:	6d69 5f65 	*unknown*
 296:	7562 0066 	*unknown*
 29a:	725f 7365 	*unknown*
 29e:	6c75      	strd r3,[r3],r0
 2a0:	0074      	strd r0,[r0]
 2a2:	5f5f 6377 	*unknown*
 2a6:	0068 6977 	bgt d2f0a6 <_PROG_SIZE_FOR_CORE_+0xc2f0a6>
 2aa:	746e      	asr r3,r5,0x3
 2ac:	745f 5f00 	*unknown*
 2b0:	6c66      	lsr r3,r3,0x3
 2b2:	6761      	ldrd r3,[r1,r6]
 2b4:	3273 5f00 	*unknown*
 2b8:	7277      	fabs rd,rn
 2ba:	7469 0065 	*unknown*
 2be:	5f5f 6d74 	*unknown*
 2c2:	795f 6165 	*unknown*
 2c6:	0072      	movgte r0,r0
 2c8:	6973 657a 	*unknown*
 2cc:	7974      	strd r3,[r6,0x2]
 2ce:	6570      	bgte 398 <__do_global_ctors_aux+0x30>
 2d0:	5f00      	beq 38e <__do_global_ctors_aux+0x26>
 2d2:	656e      	asr r3,r1,0xb
 2d4:	7478 0066 	bgte cfbc <__stack_start_+0x4fcc>
 2d8:	5f5f 6d74 	*unknown*
 2dc:	6d5f 6e6f 	*unknown*
 2e0:	5f00      	beq 39e <__do_global_ctors_aux+0x36>
 2e2:	7461      	ldrd r3,[r5,r0]
 2e4:	7865      	ldrd r3,[r6],r0
 2e6:	7469 5f00 	ldrd r19,[r61,+r48]
 2ea:	735f 6964 	*unknown*
 2ee:	6964      	ldrd r3,[r2,0x2]
 2f0:	696e      	asr r3,r2,0xb
 2f2:	0074      	strd r0,[r0]
 2f4:	6f5f 6666 	*unknown*
 2f8:	745f 5f00 	*unknown*
 2fc:	7266      	lsr r3,r4,0x13
 2fe:	6565      	ldrd r3,[r1],r2
 300:	696c 7473 	ldrd r27,[r42,+0x39a]
 304:	5f00      	beq 3c2 <_fini+0x16>
 306:	4f4c 4b43 	ldr r18,[r19],-0x21e
 30a:	525f 4345 	*unknown*
 30e:	5255      	str r2,[r4],r4
 310:	4953 4556 	*unknown*
 314:	545f 7500 	*unknown*
 318:	736e      	asr r3,r4,0x1b
 31a:	6769 656e 	*unknown*
 31e:	2064      	ldrd r1,[r0]
 320:	6863      	mov r3,0x43
 322:	7261      	ldrd r3,[r4,r4]
 324:	5f00      	beq 3e2 <__TMC_END__+0x2>
 326:	656e      	asr r3,r1,0xb
 328:	0077      	fabs rd,rn
 32a:	685f 655f 	*unknown*
 32e:	7272 6f6e 	*unknown*
 332:	7300      	beq 418 <_end+0x28>
 334:	6f68 7472 	bgt e8e812 <_PROG_SIZE_FOR_CORE_+0xd8e812>
 338:	6920      	bgtu 40a <_end+0x1a>
 33a:	746e      	asr r3,r5,0x3
 33c:	5f00      	beq 3fa <_end+0xa>
 33e:	745f 5f6d 	*unknown*
 342:	6479 7961 	*unknown*
 346:	5f00      	beq 404 <_end+0x14>
 348:	735f 7562 	*unknown*
 34c:	0066      	lsr r0,r0,0x3
 34e:	695f 626f 	*unknown*
 352:	0073 5f5f 	*unknown*
 356:	4946      	lsr r2,r2,0xa
 358:	454c 5f00 	ldr r18,[r57],-0x2
 35c:	626d 7473 	*unknown*
 360:	7461      	ldrd r3,[r5,r0]
 362:	5f65      	ldrd r2,[r7],r6
 364:	0074      	strd r0,[r0]
 366:	5f5f 4673 	*unknown*
 36a:	4c49 0045 	*unknown*
 36e:	6d5f 7362 	*unknown*
 372:	6174      	strd r3,[r0,0x2]
 374:	6574      	strd r3,[r1,0x2]
 376:	5f00      	beq 434 <_end+0x44>
 378:	6172 646e 	*unknown*
 37c:	6e5f 7865 	*unknown*
 380:	0074      	strd r0,[r0]
 382:	6d5f 6c62 	*unknown*
 386:	6e65      	ldrd r3,[r3],r4
 388:	735f 6174 	*unknown*
 38c:	6574      	strd r3,[r1,0x2]
 38e:	5f00      	beq 44c <_end+0x5c>
 390:	6e69 0063 	*unknown*
 394:	695f 646e 	*unknown*
 398:	5f00      	beq 456 <_end+0x66>
 39a:	7563      	mov r3,0xab
 39c:	7272 6e65 	*unknown*
 3a0:	5f74      	strd r2,[r7,0x6]
 3a2:	6f6c 6163 	ldrd r27,[r3,-0x31e]
 3a6:	656c 5f00 	ldrd r19,[r57],-0x2
 3aa:	635f 656c 	*unknown*
 3ae:	6e61      	ldrd r3,[r3,r4]
 3b0:	7075      	strd r3,[r4],r0
 3b2:	5f00      	beq 470 <_end+0x80>
 3b4:	616d 7778 	*unknown*
 3b8:	7364      	ldrd r3,[r4,0x6]
 3ba:	5f00      	beq 478 <_end+0x88>
 3bc:	6572 6e65 	*unknown*
 3c0:	0074      	strd r0,[r0]
 3c2:	735f 6565 	*unknown*
 3c6:	0064      	ldrd r0,[r0]
 3c8:	5f5f 6f63 	*unknown*
 3cc:	6e75      	strd r3,[r3],r4
 3ce:	0074      	strd r0,[r0]
 3d0:	5f5f 6176 	*unknown*
 3d4:	756c 0065 	ldrd r3,[r5,+0x32a]
 3d8:	735f 6565 	*unknown*
 3dc:	006b 665f 	*unknown*
 3e0:	6f70      	bgte 4be <_end+0xce>
 3e2:	5f73 0074 	*unknown*
 3e6:	6f6c 676e 	ldrd r27,[r11],-0x376
 3ea:	6420      	bgtu 4b2 <_end+0xc2>
 3ec:	756f 6c62 	*unknown*
 3f0:	0065      	ldrd r0,[r0],r0
 3f2:	5f5f 6d74 	*unknown*
 3f6:	6d5f 6e69 	*unknown*
 3fa:	5f00      	beq 4b8 <_end+0xc8>
 3fc:	756d 746c 	*unknown*
 400:	5f00      	beq 4be <_end+0xce>
 402:	7473 7472 	*unknown*
 406:	6b6f 6c5f 	*unknown*
 40a:	7361      	ldrd r3,[r4,r6]
 40c:	0074      	strd r0,[r0]
 40e:	665f 746e 	*unknown*
 412:	7079 7365 	*unknown*
 416:	5f00      	beq 4d4 <_end+0xe4>
 418:	6461      	ldrd r3,[r1,r0]
 41a:	0064      	ldrd r0,[r0]
 41c:	5f5f 4c55 	*unknown*
 420:	6e6f 0067 	*unknown*
 424:	675f 7465 	*unknown*
 428:	6164      	ldrd r3,[r0,0x2]
 42a:	6574      	strd r3,[r1,0x2]
 42c:	655f 7272 	*unknown*
 430:	2f00      	beq 48e <_end+0x9e>
 432:	6f68 656d 	bgt cadf10 <_PROG_SIZE_FOR_CORE_+0xbadf10>
 436:	732f 696e 	*unknown*
 43a:	326d 692f 	*unknown*
 43e:	736e      	asr r3,r4,0x1b
 440:	2f74      	strd r1,[r3,0x6]
 442:	6461      	ldrd r3,[r1,r0]
 444:	7061      	ldrd r3,[r4,r0]
 446:	6574      	strd r3,[r1,0x2]
 448:	6176      	lsl r3,r0,0xb
 44a:	752f 696e 	*unknown*
 44e:	7273 2d63 	*unknown*
 452:	3032      	movgteu r1,r4
 454:	3631      	strh r1,[r5,r4]
 456:	332e      	asr r1,r4,0x19
 458:	312e      	asr r1,r4,0x9
 45a:	6e2f 7765 	*unknown*
 45e:	696c 2f62 	ldrd r11,[r26],-0x312
 462:	696c 6362 	ldrd r27,[r2],-0x312
 466:	732f 6474 	*unknown*
 46a:	696c 2f62 	ldrd r11,[r26],-0x312
 46e:	7865      	ldrd r3,[r6],r0
 470:	7469 632e 	*unknown*
 474:	5f00      	beq 532 <_end+0x142>
 476:	6c67      	fix r3,r3
 478:	626f 6c61 	*unknown*
 47c:	695f 706d 	*unknown*
 480:	7275      	strd r3,[r4],r4
 482:	5f65      	ldrd r2,[r7],r6
 484:	7470      	bgte 56c <_end+0x17c>
 486:	0072      	movgte r0,r0
 488:	635f 7275 	*unknown*
 48c:	6572 746e 	*unknown*
 490:	635f 7461 	*unknown*
 494:	6765      	ldrd r3,[r1],r6
 496:	726f 0079 	*unknown*
 49a:	6f63      	mov r3,0x7b
 49c:	6564      	ldrd r3,[r1,0x2]
 49e:	5f00      	beq 55c <_end+0x16c>
 4a0:	6e75      	strd r3,[r3],r4
 4a2:	7375      	strd r3,[r4],r6
 4a4:	6465      	ldrd r3,[r1],r0
 4a6:	725f 6e61 	*unknown*
 4aa:	0064      	ldrd r0,[r0]
 4ac:	775f 7364 	*unknown*
 4b0:	5f00      	beq 56e <_end+0x17e>
 4b2:	745f 5f6d 	*unknown*
 4b6:	6477      	fabs rd,rn
 4b8:	7961      	ldrd r3,[r6,r2]
 4ba:	5f00      	beq 578 <_end+0x188>
 4bc:	6c67      	fix r3,r3
 4be:	6575      	strd r3,[r1],r2
 4c0:	5f00      	beq 57e <_end+0x18e>
 4c2:	6d6e      	asr r3,r3,0xb
 4c4:	6c61      	ldrd r3,[r3,r0]
 4c6:	6f6c 0063 	ldrd r3,[r3,+0x31e]
 4ca:	6c5f 3436 	*unknown*
 4ce:	5f61      	ldrd r2,[r7,r6]
 4d0:	7562 0066 	*unknown*
 4d4:	735f 6769 	*unknown*
 4d8:	665f 6e75 	*unknown*
 4dc:	0063      	mov r0,0x3
 4de:	6e5f 7562 	*unknown*
 4e2:	0066      	lsr r0,r0,0x3
 4e4:	755f 756e 	*unknown*
 4e8:	6573 0064 	*unknown*
 4ec:	5f5f 6d74 	*unknown*
 4f0:	695f 6473 	*unknown*
 4f4:	7473 5f00 	*unknown*
 4f8:	6f6c 6163 	ldrd r27,[r3,-0x31e]
 4fc:	746c 6d69 	ldrd r27,[r29,-0x348]
 500:	5f65      	ldrd r2,[r7],r6
 502:	7562 0066 	*unknown*
 506:	635f 6f6c 	*unknown*
 50a:	6573 5f00 	*unknown*
 50e:	3472      	movgte r1,r5
 510:	0038 6d5f 	bgteu dac310 <_PROG_SIZE_FOR_CORE_+0xcac310>
 514:	7462      	movgt r3,r5
 516:	776f 5f63 	*unknown*
 51a:	7473 7461 	*unknown*
 51e:	0065      	ldrd r0,[r0],r0
 520:	705f 7335 	*unknown*
 524:	5f00      	beq 5e2 <_end+0x1f2>
 526:	745f 5f6d 	*unknown*
 52a:	646d 7961 	*unknown*
 52e:	6900      	beq 600 <_end+0x210>
 530:	706d 7275 	*unknown*
 534:	5f65      	ldrd r2,[r7],r6
 536:	6164      	ldrd r3,[r0,0x2]
 538:	6174      	strd r3,[r0,0x2]
 53a:	2f00      	beq 598 <_end+0x1a8>
 53c:	6f68 656d 	bgt cae01a <_PROG_SIZE_FOR_CORE_+0xbae01a>
 540:	732f 696e 	*unknown*
 544:	326d 692f 	*unknown*
 548:	736e      	asr r3,r4,0x1b
 54a:	2f74      	strd r1,[r3,0x6]
 54c:	6461      	ldrd r3,[r1,r0]
 54e:	7061      	ldrd r3,[r4,r0]
 550:	6574      	strd r3,[r1,0x2]
 552:	6176      	lsl r3,r0,0xb
 554:	752f 696e 	*unknown*
 558:	7273 2d63 	*unknown*
 55c:	3032      	movgteu r1,r4
 55e:	3631      	strh r1,[r5,r4]
 560:	332e      	asr r1,r4,0x19
 562:	312e      	asr r1,r4,0x9
 564:	6e2f 7765 	*unknown*
 568:	696c 2f62 	ldrd r11,[r26],-0x312
 56c:	696c 6362 	ldrd r27,[r2],-0x312
 570:	722f 6565 	*unknown*
 574:	746e      	asr r3,r5,0x3
 576:	692f 706d 	*unknown*
 57a:	7275      	strd r3,[r4],r4
 57c:	2e65      	ldrd r1,[r3],r4
 57e:	0063      	mov r0,0x3
 580:	616c 7473 	ldrd r27,[r40,+0x39a]
 584:	0070      	bgte 584 <_end+0x194>
 586:	6572 7473 	*unknown*
 58a:	7261      	ldrd r3,[r4,r4]
 58c:	0074      	strd r0,[r0]
 58e:	682f 6d6f 	*unknown*
 592:	2f65      	ldrd r1,[r3],r6
 594:	6e73 6d69 	*unknown*
 598:	2f32 6e69 	*unknown*
 59c:	7473 612f 	*unknown*
 5a0:	6164      	ldrd r3,[r0,0x2]
 5a2:	7470      	bgte 68a <_end+0x29a>
 5a4:	7665      	ldrd r3,[r5],r4
 5a6:	2f61      	ldrd r1,[r3,r6]
 5a8:	6e75      	strd r3,[r3],r4
 5aa:	7369 6372 	*unknown*
 5ae:	322d 3130 	*unknown*
 5b2:	2e36      	lsl r1,r3,0x11
 5b4:	2e33      	sub r1,r3,-4
 5b6:	2f31      	strh r1,[r3,r6]
 5b8:	656e      	asr r3,r1,0xb
 5ba:	6c77      	fabs rd,rn
 5bc:	6269 6c2f 	*unknown*
 5c0:	6269 2f63 	*unknown*
 5c4:	7473 6c64 	*unknown*
 5c8:	6269 5f2f 	*unknown*
 5cc:	635f 6c61 	*unknown*
 5d0:	5f6c 7461 	ldrd r26,[r47,+0x30e]
 5d4:	7865      	ldrd r3,[r6],r0
 5d6:	7469 632e 	*unknown*
 5da:	5f00      	beq 698 <_end+0x2a8>
 5dc:	635f 6c61 	*unknown*
 5e0:	5f6c 7865 	ldrd r26,[r55,+0x32e]
 5e4:	7469 7270 	*unknown*
 5e8:	636f 0073 	*unknown*
 5ec:	5f5f 7461 	*unknown*
 5f0:	7865      	ldrd r3,[r6],r0
 5f2:	7469 6c5f 	*unknown*
 5f6:	636f 006b 	*unknown*

Disassembly of section .debug_loc:

00000000 <.debug_loc>:
   0:	0000      	beq 0 <_CORE_NUM_>
   2:	0000      	beq 2 <_CORE_NUM_+0x2>
   4:	0019 0000 	strb r0,[r0,+r0]
   8:	0001      	ldrb r0,[r0,r0]
   a:	1950      	bltu 3c <_CORE_ROW_+0x1c>
   c:	0000      	beq c <_CORE_COL_+0x4>
   e:	3a00      	beq 82 <__loader_args_ptr+0x22>
  10:	0000      	beq 10 <_CORE_COL_+0x8>
  12:	0100      	beq 14 <_CORE_COL_+0xc>
  14:	5400      	beq bc <__loader_args_ptr+0x5c>
	...
  22:	0036      	lsl r0,r0,0x1
  24:	0000      	beq 24 <_CORE_ROW_+0x4>
  26:	0001      	ldrb r0,[r0,r0]
  28:	3650      	bltu 94 <__loader_args_ptr+0x34>
  2a:	0000      	beq 2a <_CORE_ROW_+0xa>
  2c:	4200      	beq b0 <__loader_args_ptr+0x50>
  2e:	0001      	ldrb r0,[r0,r0]
  30:	0100      	beq 32 <_CORE_ROW_+0x12>
  32:	5f00      	beq f0 <__loader_args_ptr+0x90>
	...
  40:	0036      	lsl r0,r0,0x1
  42:	0000      	beq 42 <_CORE_ROW_+0x22>
  44:	0001      	ldrb r0,[r0,r0]
  46:	3651      	str r1,[r5,r4]
  48:	0000      	beq 48 <_CORE_ROW_+0x28>
  4a:	4200      	beq ce <__loader_args_ptr+0x6e>
  4c:	0001      	ldrb r0,[r0,r0]
  4e:	0100      	beq 50 <_CORE_ROW_+0x30>
  50:	5900      	beq 102 <_normal_start+0x2>
	...
  5a:	003e 0000 	*unknown*
  5e:	00f4      	strd r0,[r0,0x1]
  60:	0000      	beq 60 <__loader_args_ptr>
  62:	0001      	ldrb r0,[r0,r0]
  64:	f458 0000 	bltu 24c <deregister_tm_clones+0x4>
  68:	f800      	beq 58 <__loader_flags>
  6a:	0000      	beq 6a <__loader_args_ptr+0xa>
  6c:	0200      	beq 70 <__loader_args_ptr+0x10>
  6e:	7a00      	beq 162 <_epiphany_start+0x32>
  70:	f800      	beq 60 <__loader_args_ptr>
  72:	0000      	beq 72 <__loader_args_ptr+0x12>
  74:	0600      	beq 80 <__loader_args_ptr+0x20>
  76:	0001      	ldrb r0,[r0,r0]
  78:	0100      	beq 7a <__loader_args_ptr+0x1a>
  7a:	5800      	beq 12a <_init+0x1e>
  7c:	011a      	add r0,r0,r2
  7e:	0000      	beq 7e <__loader_args_ptr+0x1e>
  80:	0138 0000 	bgteu 82 <__loader_args_ptr+0x22>
  84:	0001      	ldrb r0,[r0,r0]
  86:	3858 0001 	bltu 2f6 <__do_global_dtors_aux+0x52>
  8a:	3e00      	beq 106 <_normal_start+0x6>
  8c:	0001      	ldrb r0,[r0,r0]
  8e:	0200      	beq 92 <__loader_args_ptr+0x32>
  90:	7000      	beq 170 <bss_loop+0x6>
  92:	3e00      	beq 10e <_init+0x2>
  94:	0001      	ldrb r0,[r0,r0]
  96:	4200      	beq 11a <_init+0xe>
  98:	0001      	ldrb r0,[r0,r0]
  9a:	0100      	beq 9c <__loader_args_ptr+0x3c>
  9c:	5800      	beq 14c <_epiphany_start+0x1c>
	...
  a6:	0048 0000 	blteu a6 <__loader_args_ptr+0x46>
  aa:	00fe 0000 	*unknown*
  ae:	0001      	ldrb r0,[r0,r0]
  b0:	1a5a      	and r0,r6,r4
  b2:	0001      	ldrb r0,[r0,r0]
  b4:	4200      	beq 138 <_epiphany_start+0x8>
  b6:	0001      	ldrb r0,[r0,r0]
  b8:	0100      	beq ba <__loader_args_ptr+0x5a>
  ba:	5a00      	beq 16e <bss_loop+0x4>
	...
  c4:	0048 0000 	blteu c4 <__loader_args_ptr+0x64>
  c8:	00f4      	strd r0,[r0,0x1]
  ca:	0000      	beq ca <__loader_args_ptr+0x6a>
  cc:	0004      	ldrb r0,[r0]
  ce:	8878 9f01 	bgte ff3e03de <_exit+0x713dfe06>
  d2:	00f4      	strd r0,[r0,0x1]
  d4:	0000      	beq d4 <__loader_args_ptr+0x74>
  d6:	00f8 0000 	bl d6 <__loader_args_ptr+0x76>
  da:	0007      	fadd r0,r0,r0
  dc:	007a      	orr r0,r0,r0
  de:	2306      	lsr r1,r0,0x18
  e0:	0188 f89f 	blt fff13ee2 <_exit+0x71f1390a>
  e4:	0000      	beq e4 <__loader_args_ptr+0x84>
  e6:	fe00      	beq e2 <__loader_args_ptr+0x82>
  e8:	0000      	beq e8 <__loader_args_ptr+0x88>
  ea:	0400      	beq f2 <__loader_args_ptr+0x92>
  ec:	7800      	beq 1dc <custom_call+0x8>
  ee:	0188 1a9f 	blt 353ef0 <_PROG_SIZE_FOR_CORE_+0x253ef0>
  f2:	0001      	ldrb r0,[r0,r0]
  f4:	3800      	beq 164 <_epiphany_start+0x34>
  f6:	0001      	ldrb r0,[r0,r0]
  f8:	0400      	beq 100 <_normal_start>
  fa:	7800      	beq 1ea <custom_call+0x16>
  fc:	0188 389f 	blt 713efe <_PROG_SIZE_FOR_CORE_+0x613efe>
 100:	0001      	ldrb r0,[r0,r0]
 102:	3e00      	beq 17e <bss_done+0xc>
 104:	0001      	ldrb r0,[r0,r0]
 106:	0400      	beq 10e <_init+0x2>
 108:	7000      	beq 1e8 <custom_call+0x14>
 10a:	0188 3e9f 	blt 7d3f0c <_PROG_SIZE_FOR_CORE_+0x6d3f0c>
 10e:	0001      	ldrb r0,[r0,r0]
 110:	4200      	beq 194 <bss_done+0x22>
 112:	0001      	ldrb r0,[r0,r0]
 114:	0400      	beq 11c <_init+0x10>
 116:	7800      	beq 206 <custom_call+0x32>
 118:	0188 009f 	blt 13f1a <__stack_start_+0xbf2a>
 11c:	0000      	beq 11c <_init+0x10>
 11e:	0000      	beq 11e <_init+0x12>
 120:	0000      	beq 120 <_init+0x14>
 122:	5400      	beq 1ca <RDS+0x16>
 124:	0000      	beq 124 <_init+0x18>
 126:	fe00      	beq 122 <_init+0x16>
 128:	0000      	beq 128 <_init+0x1c>
 12a:	0100      	beq 12c <_init+0x20>
 12c:	5400      	beq 1d4 <custom_call>
 12e:	011a      	add r0,r0,r2
 130:	0000      	beq 130 <_epiphany_start>
 132:	0142      	jr r0
 134:	0000      	beq 134 <_epiphany_start+0x4>
 136:	0001      	ldrb r0,[r0,r0]
 138:	0054      	str r0,[r0]
 13a:	0000      	beq 13a <_epiphany_start+0xa>
 13c:	0000      	beq 13c <_epiphany_start+0xc>
 13e:	0000      	beq 13e <_epiphany_start+0xe>
 140:	5a00      	beq 1f4 <custom_call+0x20>
 142:	0000      	beq 142 <_epiphany_start+0x12>
 144:	6600      	beq 210 <custom_call+0x3c>
 146:	0000      	beq 146 <_epiphany_start+0x16>
 148:	0500      	beq 152 <_epiphany_start+0x22>
 14a:	3100      	beq 1ac <bss_done+0x3a>
 14c:	0074      	strd r0,[r0]
 14e:	9f24      	ldrh r4,[r7,0x6]
 150:	0066      	lsr r0,r0,0x3
 152:	0000      	beq 152 <_epiphany_start+0x22>
 154:	006c 0000 	ldrd r0,[r0,+0x0]
 158:	0005      	ldrb r0,[r0],r0
 15a:	7431      	strh r3,[r5,r0]
 15c:	2401      	ldrb r1,[r1,r0]
 15e:	6c9f 0000 	*unknown*
 162:	c000      	beq e2 <__loader_args_ptr+0x82>
 164:	0000      	beq 164 <_epiphany_start+0x34>
 166:	0500      	beq 170 <bss_loop+0x6>
 168:	3100      	beq 1ca <RDS+0x16>
 16a:	0074      	strd r0,[r0]
 16c:	9f24      	ldrh r4,[r7,0x6]
 16e:	00c0      	bblt 16e <bss_loop+0x4>
 170:	0000      	beq 170 <bss_loop+0x6>
 172:	00c6      	lsr r0,r0,0x6
 174:	0000      	beq 174 <bss_done+0x2>
 176:	0005      	ldrb r0,[r0],r0
 178:	7431      	strh r3,[r5,r0]
 17a:	2401      	ldrb r1,[r1,r0]
 17c:	1a9f 0001 	*unknown*
 180:	3000      	beq 1e0 <custom_call+0xc>
 182:	0001      	ldrb r0,[r0,r0]
 184:	0500      	beq 18e <bss_done+0x1c>
 186:	3100      	beq 1e8 <custom_call+0x14>
 188:	0074      	strd r0,[r0]
 18a:	9f24      	ldrh r4,[r7,0x6]
	...
 194:	007a      	orr r0,r0,r0
 196:	0000      	beq 196 <bss_done+0x24>
 198:	00a9 0000 	ldrh r0,[r0,+r1]
 19c:	0001      	ldrb r0,[r0,r0]
 19e:	1a5c 0001 	str r0,[r6,+0xc]
 1a2:	1d00      	beq 1dc <custom_call+0x8>
 1a4:	0001      	ldrb r0,[r0,r0]
 1a6:	0100      	beq 1a8 <bss_done+0x36>
 1a8:	5c00      	beq 260 <deregister_tm_clones+0x18>
 1aa:	0120      	bgtu 1ac <bss_done+0x3a>
 1ac:	0000      	beq 1ac <bss_done+0x3a>
 1ae:	012d 0000 	ldrh r0,[r0],+r2
 1b2:	0001      	ldrb r0,[r0,r0]
 1b4:	005c 0000 	str r0,[r0]
 1b8:	0000      	beq 1b8 <RDS+0x4>
 1ba:	0000      	beq 1ba <RDS+0x6>
 1bc:	9400      	beq e4 <__loader_args_ptr+0x84>
 1be:	0000      	beq 1be <RDS+0xa>
 1c0:	c600      	beq 14c <_epiphany_start+0x1c>
 1c2:	0000      	beq 1c2 <RDS+0xe>
 1c4:	0100      	beq 1c6 <RDS+0x12>
 1c6:	5b00      	beq 27c <register_tm_clones+0x8>
 1c8:	011a      	add r0,r0,r2
 1ca:	0000      	beq 1ca <RDS+0x16>
 1cc:	0120      	bgtu 1ce <RDS+0x1a>
 1ce:	0000      	beq 1ce <RDS+0x1a>
 1d0:	0001      	ldrb r0,[r0,r0]
 1d2:	265b 0001 	*unknown*
 1d6:	3000      	beq 236 <std_call+0xe>
 1d8:	0001      	ldrb r0,[r0,r0]
 1da:	0100      	beq 1dc <custom_call+0x8>
 1dc:	5b00      	beq 292 <register_tm_clones+0x1e>
	...

Disassembly of section .debug_ranges:

00000000 <__stack-0x7ff0>:
   0:	002a      	lsl r0,r0,r0
   2:	0000      	beq 2 <_CORE_NUM_+0x2>
   4:	002e      	asr r0,r0,0x1
   6:	0000      	beq 6 <_NUM_COLS_IN_CHIP_+0x2>
   8:	005a      	and r0,r0,r0
   a:	0000      	beq a <_CORE_COL_+0x2>
   c:	0064      	ldrd r0,[r0]
   e:	0000      	beq e <_CORE_COL_+0x6>
  10:	006c 0000 	ldrd r0,[r0,+0x0]
  14:	00be 0000 	*unknown*
  18:	011a      	add r0,r0,r2
  1a:	0000      	beq 1a <_CORE_COL_+0x12>
  1c:	0134      	strh r0,[r0,0x2]
	...
